
SW_Layered_Project.elf:     file format elf32-avr

Sections:
Idx Name          Size      VMA       LMA       File off  Algn
  0 .text         00000df4  00000000  00000000  00000094  2**1
                  CONTENTS, ALLOC, LOAD, READONLY, CODE
  1 .data         000000c4  00800060  00000df4  00000e88  2**0
                  CONTENTS, ALLOC, LOAD, DATA
  2 .bss          0000000f  00800124  00800124  00000f4c  2**0
                  ALLOC
  3 .stab         00001fa4  00000000  00000000  00000f4c  2**2
                  CONTENTS, READONLY, DEBUGGING
  4 .stabstr      00001373  00000000  00000000  00002ef0  2**0
                  CONTENTS, READONLY, DEBUGGING

Disassembly of section .text:

00000000 <__vectors>:
   0:	0c 94 2a 00 	jmp	0x54	; 0x54 <__ctors_end>
   4:	0c 94 47 00 	jmp	0x8e	; 0x8e <__bad_interrupt>
   8:	0c 94 47 00 	jmp	0x8e	; 0x8e <__bad_interrupt>
   c:	0c 94 47 00 	jmp	0x8e	; 0x8e <__bad_interrupt>
  10:	0c 94 47 00 	jmp	0x8e	; 0x8e <__bad_interrupt>
  14:	0c 94 47 00 	jmp	0x8e	; 0x8e <__bad_interrupt>
  18:	0c 94 47 00 	jmp	0x8e	; 0x8e <__bad_interrupt>
  1c:	0c 94 47 00 	jmp	0x8e	; 0x8e <__bad_interrupt>
  20:	0c 94 47 00 	jmp	0x8e	; 0x8e <__bad_interrupt>
  24:	0c 94 47 00 	jmp	0x8e	; 0x8e <__bad_interrupt>
  28:	0c 94 47 00 	jmp	0x8e	; 0x8e <__bad_interrupt>
  2c:	0c 94 47 00 	jmp	0x8e	; 0x8e <__bad_interrupt>
  30:	0c 94 47 00 	jmp	0x8e	; 0x8e <__bad_interrupt>
  34:	0c 94 47 00 	jmp	0x8e	; 0x8e <__bad_interrupt>
  38:	0c 94 47 00 	jmp	0x8e	; 0x8e <__bad_interrupt>
  3c:	0c 94 47 00 	jmp	0x8e	; 0x8e <__bad_interrupt>
  40:	0c 94 47 00 	jmp	0x8e	; 0x8e <__bad_interrupt>
  44:	0c 94 47 00 	jmp	0x8e	; 0x8e <__bad_interrupt>
  48:	0c 94 47 00 	jmp	0x8e	; 0x8e <__bad_interrupt>
  4c:	0c 94 62 03 	jmp	0x6c4	; 0x6c4 <__vector_19>
  50:	0c 94 47 00 	jmp	0x8e	; 0x8e <__bad_interrupt>

00000054 <__ctors_end>:
  54:	11 24       	eor	r1, r1
  56:	1f be       	out	0x3f, r1	; 63
  58:	cf e5       	ldi	r28, 0x5F	; 95
  5a:	d4 e0       	ldi	r29, 0x04	; 4
  5c:	de bf       	out	0x3e, r29	; 62
  5e:	cd bf       	out	0x3d, r28	; 61

00000060 <__do_copy_data>:
  60:	11 e0       	ldi	r17, 0x01	; 1
  62:	a0 e6       	ldi	r26, 0x60	; 96
  64:	b0 e0       	ldi	r27, 0x00	; 0
  66:	e4 ef       	ldi	r30, 0xF4	; 244
  68:	fd e0       	ldi	r31, 0x0D	; 13
  6a:	02 c0       	rjmp	.+4      	; 0x70 <.do_copy_data_start>

0000006c <.do_copy_data_loop>:
  6c:	05 90       	lpm	r0, Z+
  6e:	0d 92       	st	X+, r0

00000070 <.do_copy_data_start>:
  70:	a4 32       	cpi	r26, 0x24	; 36
  72:	b1 07       	cpc	r27, r17
  74:	d9 f7       	brne	.-10     	; 0x6c <.do_copy_data_loop>

00000076 <__do_clear_bss>:
  76:	11 e0       	ldi	r17, 0x01	; 1
  78:	a4 e2       	ldi	r26, 0x24	; 36
  7a:	b1 e0       	ldi	r27, 0x01	; 1
  7c:	01 c0       	rjmp	.+2      	; 0x80 <.do_clear_bss_start>

0000007e <.do_clear_bss_loop>:
  7e:	1d 92       	st	X+, r1

00000080 <.do_clear_bss_start>:
  80:	a3 33       	cpi	r26, 0x33	; 51
  82:	b1 07       	cpc	r27, r17
  84:	e1 f7       	brne	.-8      	; 0x7e <.do_clear_bss_loop>
  86:	0e 94 ed 06 	call	0xdda	; 0xdda <main>
  8a:	0c 94 f8 06 	jmp	0xdf0	; 0xdf0 <_exit>

0000008e <__bad_interrupt>:
  8e:	0c 94 00 00 	jmp	0	; 0x0 <__vectors>

00000092 <Init_Task>:
  92:	df 93       	push	r29
  94:	cf 93       	push	r28
  96:	cd b7       	in	r28, 0x3d	; 61
  98:	de b7       	in	r29, 0x3e	; 62
  9a:	af e5       	ldi	r26, 0x5F	; 95
  9c:	b0 e0       	ldi	r27, 0x00	; 0
  9e:	ef e5       	ldi	r30, 0x5F	; 95
  a0:	f0 e0       	ldi	r31, 0x00	; 0
  a2:	80 81       	ld	r24, Z
  a4:	80 68       	ori	r24, 0x80	; 128
  a6:	8c 93       	st	X, r24
  a8:	84 e6       	ldi	r24, 0x64	; 100
  aa:	90 e0       	ldi	r25, 0x00	; 0
  ac:	0e 94 3c 04 	call	0x878	; 0x878 <Port_Init>
  b0:	80 e6       	ldi	r24, 0x60	; 96
  b2:	90 e0       	ldi	r25, 0x00	; 0
  b4:	0e 94 d5 00 	call	0x1aa	; 0x1aa <Dio_Init>
  b8:	cf 91       	pop	r28
  ba:	df 91       	pop	r29
  bc:	08 95       	ret

000000be <Button_Task>:

}

/* Task called every 20 Mili-seconds to check the button state */
void Button_Task(void)
{
  be:	df 93       	push	r29
  c0:	cf 93       	push	r28
  c2:	cd b7       	in	r28, 0x3d	; 61
  c4:	de b7       	in	r29, 0x3e	; 62
	BUTTON_refreshState();
  c6:	0e 94 93 00 	call	0x126	; 0x126 <BUTTON_refreshState>
}
  ca:	cf 91       	pop	r28
  cc:	df 91       	pop	r29
  ce:	08 95       	ret

000000d0 <Led_Task>:

/* Task called every 40 Mili-seconds to refresh the LED */
void Led_Task(void)
{
  d0:	df 93       	push	r29
  d2:	cf 93       	push	r28
  d4:	cd b7       	in	r28, 0x3d	; 61
  d6:	de b7       	in	r29, 0x3e	; 62
	LED_refreshOutput();
  d8:	0e 94 ab 03 	call	0x756	; 0x756 <LED_refreshOutput>
}
  dc:	cf 91       	pop	r28
  de:	df 91       	pop	r29
  e0:	08 95       	ret

000000e2 <App_Task>:

/* Task called every 60 Mili-seconds to get the button status and toggle the led */
void App_Task(void)
{
  e2:	df 93       	push	r29
  e4:	cf 93       	push	r28
  e6:	cd b7       	in	r28, 0x3d	; 61
  e8:	de b7       	in	r29, 0x3e	; 62
	static uint8 button_previous_state = BUTTON_RELEASED;
	static uint8 button_current_state  = BUTTON_RELEASED;
	
	button_current_state = BUTTON_getState(); //Read the button state
  ea:	0e 94 8a 00 	call	0x114	; 0x114 <BUTTON_getState>
  ee:	80 93 24 01 	sts	0x0124, r24
	
	/* Only Toggle the led in case the current state of the switch is pressed
	 * and the previous state is released */ 
	if((button_current_state == BUTTON_PRESSED) && (button_previous_state == BUTTON_RELEASED))
  f2:	80 91 24 01 	lds	r24, 0x0124
  f6:	81 30       	cpi	r24, 0x01	; 1
  f8:	31 f4       	brne	.+12     	; 0x106 <App_Task+0x24>
  fa:	80 91 25 01 	lds	r24, 0x0125
  fe:	88 23       	and	r24, r24
 100:	11 f4       	brne	.+4      	; 0x106 <App_Task+0x24>
	{
		LED_toggle();
 102:	0e 94 bc 03 	call	0x778	; 0x778 <LED_toggle>
	}
	
	button_previous_state = button_current_state;
 106:	80 91 24 01 	lds	r24, 0x0124
 10a:	80 93 25 01 	sts	0x0125, r24
}
 10e:	cf 91       	pop	r28
 110:	df 91       	pop	r29
 112:	08 95       	ret

00000114 <BUTTON_getState>:
static uint8 g_button_state   = BUTTON_RELEASED;


/*******************************************************************************************************************/
uint8 BUTTON_getState(void)
{
 114:	df 93       	push	r29
 116:	cf 93       	push	r28
 118:	cd b7       	in	r28, 0x3d	; 61
 11a:	de b7       	in	r29, 0x3e	; 62
	return g_button_state;
 11c:	80 91 28 01 	lds	r24, 0x0128
}
 120:	cf 91       	pop	r28
 122:	df 91       	pop	r29
 124:	08 95       	ret

00000126 <BUTTON_refreshState>:
/*******************************************************************************************************************/
void BUTTON_refreshState(void)
{
 126:	df 93       	push	r29
 128:	cf 93       	push	r28
 12a:	0f 92       	push	r0
 12c:	cd b7       	in	r28, 0x3d	; 61
 12e:	de b7       	in	r29, 0x3e	; 62
	uint8 state = Dio_ReadChannel(DioConf_BUTTON_CHANNEL_ID_INDEX);
 130:	81 e0       	ldi	r24, 0x01	; 1
 132:	0e 94 af 01 	call	0x35e	; 0x35e <Dio_ReadChannel>
 136:	89 83       	std	Y+1, r24	; 0x01
	if(state == BUTTON_PRESSED)
 138:	89 81       	ldd	r24, Y+1	; 0x01
 13a:	81 30       	cpi	r24, 0x01	; 1
 13c:	41 f4       	brne	.+16     	; 0x14e <BUTTON_refreshState+0x28>
	{
		g_Pressed_Count++;
 13e:	80 91 26 01 	lds	r24, 0x0126
 142:	8f 5f       	subi	r24, 0xFF	; 255
 144:	80 93 26 01 	sts	0x0126, r24
		g_Released_Count = 0;
 148:	10 92 27 01 	sts	0x0127, r1
 14c:	07 c0       	rjmp	.+14     	; 0x15c <BUTTON_refreshState+0x36>
	}
	else
	{
		g_Released_Count++;
 14e:	80 91 27 01 	lds	r24, 0x0127
 152:	8f 5f       	subi	r24, 0xFF	; 255
 154:	80 93 27 01 	sts	0x0127, r24
		g_Pressed_Count = 0;
 158:	10 92 26 01 	sts	0x0126, r1
	}
	if(g_Pressed_Count == 3)
 15c:	80 91 26 01 	lds	r24, 0x0126
 160:	83 30       	cpi	r24, 0x03	; 3
 162:	41 f4       	brne	.+16     	; 0x174 <BUTTON_refreshState+0x4e>
	{
		g_button_state = BUTTON_PRESSED;
 164:	81 e0       	ldi	r24, 0x01	; 1
 166:	80 93 28 01 	sts	0x0128, r24
		g_Pressed_Count       = 0;
 16a:	10 92 26 01 	sts	0x0126, r1
		g_Released_Count      = 0;
 16e:	10 92 27 01 	sts	0x0127, r1
 172:	0a c0       	rjmp	.+20     	; 0x188 <BUTTON_refreshState+0x62>
	}
	else if(g_Released_Count == 3)
 174:	80 91 27 01 	lds	r24, 0x0127
 178:	83 30       	cpi	r24, 0x03	; 3
 17a:	31 f4       	brne	.+12     	; 0x188 <BUTTON_refreshState+0x62>
	{
		g_button_state = BUTTON_RELEASED;
 17c:	10 92 28 01 	sts	0x0128, r1
		g_Released_Count      = 0;
 180:	10 92 27 01 	sts	0x0127, r1
		g_Pressed_Count       = 0;
 184:	10 92 26 01 	sts	0x0126, r1
	}
}
 188:	0f 90       	pop	r0
 18a:	cf 91       	pop	r28
 18c:	df 91       	pop	r29
 18e:	08 95       	ret

00000190 <Det_ReportError>:

void Det_ReportError( uint16 ModuleId,
                      uint8 InstanceId,
                      uint8 ApiId,
					  uint8 ErrorId )
{
 190:	df 93       	push	r29
 192:	cf 93       	push	r28
 194:	00 d0       	rcall	.+0      	; 0x196 <Det_ReportError+0x6>
 196:	00 d0       	rcall	.+0      	; 0x198 <Det_ReportError+0x8>
 198:	0f 92       	push	r0
 19a:	cd b7       	in	r28, 0x3d	; 61
 19c:	de b7       	in	r29, 0x3e	; 62
 19e:	9a 83       	std	Y+2, r25	; 0x02
 1a0:	89 83       	std	Y+1, r24	; 0x01
 1a2:	6b 83       	std	Y+3, r22	; 0x03
 1a4:	4c 83       	std	Y+4, r20	; 0x04
 1a6:	2d 83       	std	Y+5, r18	; 0x05
 1a8:	ff cf       	rjmp	.-2      	; 0x1a8 <Det_ReportError+0x18>

000001aa <Dio_Init>:
* Parameters (out): None
* Return value: None
* Description: Function to Initialize the Dio module.
************************************************************************************/
void Dio_Init(const Dio_ConfigType * ConfigPtr)
{
 1aa:	df 93       	push	r29
 1ac:	cf 93       	push	r28
 1ae:	00 d0       	rcall	.+0      	; 0x1b0 <Dio_Init+0x6>
 1b0:	cd b7       	in	r28, 0x3d	; 61
 1b2:	de b7       	in	r29, 0x3e	; 62
 1b4:	9a 83       	std	Y+2, r25	; 0x02
 1b6:	89 83       	std	Y+1, r24	; 0x01
#if (DIO_DEV_ERROR_DETECT == STD_ON)
	/* check if the input configuration pointer is not a NULL_PTR */
	if (NULL_PTR == ConfigPtr)
 1b8:	89 81       	ldd	r24, Y+1	; 0x01
 1ba:	9a 81       	ldd	r25, Y+2	; 0x02
 1bc:	00 97       	sbiw	r24, 0x00	; 0
 1be:	41 f4       	brne	.+16     	; 0x1d0 <Dio_Init+0x26>
	{
		Det_ReportError(DIO_MODULE_ID, DIO_INSTANCE_ID, DIO_INIT_SID,
 1c0:	88 e7       	ldi	r24, 0x78	; 120
 1c2:	90 e0       	ldi	r25, 0x00	; 0
 1c4:	60 e0       	ldi	r22, 0x00	; 0
 1c6:	40 e1       	ldi	r20, 0x10	; 16
 1c8:	20 e1       	ldi	r18, 0x10	; 16
 1ca:	0e 94 c8 00 	call	0x190	; 0x190 <Det_ReportError>
 1ce:	09 c0       	rjmp	.+18     	; 0x1e2 <Dio_Init+0x38>
	{
		/*
		 * Set the module state to initialized and point to the PB configuration structure using a global pointer.
		 * This global pointer is global to be used by other functions to read the PB configuration structures
		 */
		Dio_Status       = DIO_INITIALIZED;
 1d0:	81 e0       	ldi	r24, 0x01	; 1
 1d2:	80 93 2b 01 	sts	0x012B, r24
		Dio_PortChannels = ConfigPtr->Channels; /* address of the first Channels structure --> Channels[0] */
 1d6:	89 81       	ldd	r24, Y+1	; 0x01
 1d8:	9a 81       	ldd	r25, Y+2	; 0x02
 1da:	90 93 2a 01 	sts	0x012A, r25
 1de:	80 93 29 01 	sts	0x0129, r24
	}
}
 1e2:	0f 90       	pop	r0
 1e4:	0f 90       	pop	r0
 1e6:	cf 91       	pop	r28
 1e8:	df 91       	pop	r29
 1ea:	08 95       	ret

000001ec <Dio_WriteChannel>:
* Parameters (out): None
* Return value: None
* Description: Function to set a level of a channel.
************************************************************************************/
void Dio_WriteChannel(Dio_ChannelType ChannelId, Dio_LevelType Level)
{
 1ec:	df 93       	push	r29
 1ee:	cf 93       	push	r28
 1f0:	cd b7       	in	r28, 0x3d	; 61
 1f2:	de b7       	in	r29, 0x3e	; 62
 1f4:	27 97       	sbiw	r28, 0x07	; 7
 1f6:	0f b6       	in	r0, 0x3f	; 63
 1f8:	f8 94       	cli
 1fa:	de bf       	out	0x3e, r29	; 62
 1fc:	0f be       	out	0x3f, r0	; 63
 1fe:	cd bf       	out	0x3d, r28	; 61
 200:	8c 83       	std	Y+4, r24	; 0x04
 202:	6d 83       	std	Y+5, r22	; 0x05
	Dio_PortLevelType * Port_Ptr = NULL_PTR;
 204:	1b 82       	std	Y+3, r1	; 0x03
 206:	1a 82       	std	Y+2, r1	; 0x02
	boolean error = FALSE;
 208:	19 82       	std	Y+1, r1	; 0x01

#if (DIO_DEV_ERROR_DETECT == STD_ON)
	/* Check if the Driver is initialized before using this function */
	if (DIO_NOT_INITIALIZED == Dio_Status)
 20a:	80 91 2b 01 	lds	r24, 0x012B
 20e:	88 23       	and	r24, r24
 210:	49 f4       	brne	.+18     	; 0x224 <Dio_WriteChannel+0x38>
	{
		Det_ReportError(DIO_MODULE_ID, DIO_INSTANCE_ID,
 212:	88 e7       	ldi	r24, 0x78	; 120
 214:	90 e0       	ldi	r25, 0x00	; 0
 216:	60 e0       	ldi	r22, 0x00	; 0
 218:	41 e0       	ldi	r20, 0x01	; 1
 21a:	20 ef       	ldi	r18, 0xF0	; 240
 21c:	0e 94 c8 00 	call	0x190	; 0x190 <Det_ReportError>
				DIO_WRITE_CHANNEL_SID, DIO_E_UNINIT);
		error = TRUE;
 220:	81 e0       	ldi	r24, 0x01	; 1
 222:	89 83       	std	Y+1, r24	; 0x01
	else
	{
		/* No Action Required */
	}
	/* Check if the used channel is within the valid range */
	if (DIO_CONFIGURED_CHANNLES <= ChannelId)
 224:	8c 81       	ldd	r24, Y+4	; 0x04
 226:	82 30       	cpi	r24, 0x02	; 2
 228:	48 f0       	brcs	.+18     	; 0x23c <Dio_WriteChannel+0x50>
	{

		Det_ReportError(DIO_MODULE_ID, DIO_INSTANCE_ID,
 22a:	88 e7       	ldi	r24, 0x78	; 120
 22c:	90 e0       	ldi	r25, 0x00	; 0
 22e:	60 e0       	ldi	r22, 0x00	; 0
 230:	41 e0       	ldi	r20, 0x01	; 1
 232:	2a e0       	ldi	r18, 0x0A	; 10
 234:	0e 94 c8 00 	call	0x190	; 0x190 <Det_ReportError>
				DIO_WRITE_CHANNEL_SID, DIO_E_PARAM_INVALID_CHANNEL_ID);
		error = TRUE;
 238:	81 e0       	ldi	r24, 0x01	; 1
 23a:	89 83       	std	Y+1, r24	; 0x01
		/* No Action Required */
	}
#endif

	/* In-case there are no errors */
	if(FALSE == error)
 23c:	89 81       	ldd	r24, Y+1	; 0x01
 23e:	88 23       	and	r24, r24
 240:	09 f0       	breq	.+2      	; 0x244 <Dio_WriteChannel+0x58>
 242:	84 c0       	rjmp	.+264    	; 0x34c <Dio_WriteChannel+0x160>
	{
		/* Point to the correct PORT register according to the Port Id stored in the Port_Num member */
		switch(Dio_PortChannels[ChannelId].Port_Num)
 244:	20 91 29 01 	lds	r18, 0x0129
 248:	30 91 2a 01 	lds	r19, 0x012A
 24c:	8c 81       	ldd	r24, Y+4	; 0x04
 24e:	88 2f       	mov	r24, r24
 250:	90 e0       	ldi	r25, 0x00	; 0
 252:	88 0f       	add	r24, r24
 254:	99 1f       	adc	r25, r25
 256:	f9 01       	movw	r30, r18
 258:	e8 0f       	add	r30, r24
 25a:	f9 1f       	adc	r31, r25
 25c:	80 81       	ld	r24, Z
 25e:	28 2f       	mov	r18, r24
 260:	30 e0       	ldi	r19, 0x00	; 0
 262:	3f 83       	std	Y+7, r19	; 0x07
 264:	2e 83       	std	Y+6, r18	; 0x06
 266:	8e 81       	ldd	r24, Y+6	; 0x06
 268:	9f 81       	ldd	r25, Y+7	; 0x07
 26a:	81 30       	cpi	r24, 0x01	; 1
 26c:	91 05       	cpc	r25, r1
 26e:	d1 f0       	breq	.+52     	; 0x2a4 <Dio_WriteChannel+0xb8>
 270:	2e 81       	ldd	r18, Y+6	; 0x06
 272:	3f 81       	ldd	r19, Y+7	; 0x07
 274:	22 30       	cpi	r18, 0x02	; 2
 276:	31 05       	cpc	r19, r1
 278:	2c f4       	brge	.+10     	; 0x284 <Dio_WriteChannel+0x98>
 27a:	8e 81       	ldd	r24, Y+6	; 0x06
 27c:	9f 81       	ldd	r25, Y+7	; 0x07
 27e:	00 97       	sbiw	r24, 0x00	; 0
 280:	61 f0       	breq	.+24     	; 0x29a <Dio_WriteChannel+0xae>
 282:	1e c0       	rjmp	.+60     	; 0x2c0 <Dio_WriteChannel+0xd4>
 284:	2e 81       	ldd	r18, Y+6	; 0x06
 286:	3f 81       	ldd	r19, Y+7	; 0x07
 288:	22 30       	cpi	r18, 0x02	; 2
 28a:	31 05       	cpc	r19, r1
 28c:	81 f0       	breq	.+32     	; 0x2ae <Dio_WriteChannel+0xc2>
 28e:	8e 81       	ldd	r24, Y+6	; 0x06
 290:	9f 81       	ldd	r25, Y+7	; 0x07
 292:	83 30       	cpi	r24, 0x03	; 3
 294:	91 05       	cpc	r25, r1
 296:	81 f0       	breq	.+32     	; 0x2b8 <Dio_WriteChannel+0xcc>
 298:	13 c0       	rjmp	.+38     	; 0x2c0 <Dio_WriteChannel+0xd4>
		{
			case 0:	Port_Ptr = &PORTA_REG;
 29a:	8b e3       	ldi	r24, 0x3B	; 59
 29c:	90 e0       	ldi	r25, 0x00	; 0
 29e:	9b 83       	std	Y+3, r25	; 0x03
 2a0:	8a 83       	std	Y+2, r24	; 0x02
 2a2:	0e c0       	rjmp	.+28     	; 0x2c0 <Dio_WriteChannel+0xd4>
		        break;
			case 1:	Port_Ptr = &PORTB_REG;
 2a4:	88 e3       	ldi	r24, 0x38	; 56
 2a6:	90 e0       	ldi	r25, 0x00	; 0
 2a8:	9b 83       	std	Y+3, r25	; 0x03
 2aa:	8a 83       	std	Y+2, r24	; 0x02
 2ac:	09 c0       	rjmp	.+18     	; 0x2c0 <Dio_WriteChannel+0xd4>
		        break;
			case 2:	Port_Ptr = &PORTC_REG;
 2ae:	85 e3       	ldi	r24, 0x35	; 53
 2b0:	90 e0       	ldi	r25, 0x00	; 0
 2b2:	9b 83       	std	Y+3, r25	; 0x03
 2b4:	8a 83       	std	Y+2, r24	; 0x02
 2b6:	04 c0       	rjmp	.+8      	; 0x2c0 <Dio_WriteChannel+0xd4>
		        break;
			case 3:	Port_Ptr = &PORTD_REG;
 2b8:	82 e3       	ldi	r24, 0x32	; 50
 2ba:	90 e0       	ldi	r25, 0x00	; 0
 2bc:	9b 83       	std	Y+3, r25	; 0x03
 2be:	8a 83       	std	Y+2, r24	; 0x02
		        break;
		}
		if(Level == STD_HIGH)
 2c0:	8d 81       	ldd	r24, Y+5	; 0x05
 2c2:	81 30       	cpi	r24, 0x01	; 1
 2c4:	01 f5       	brne	.+64     	; 0x306 <Dio_WriteChannel+0x11a>
		{
			/* Write Logic High */
			SET_BIT(*Port_Ptr,Dio_PortChannels[ChannelId].Ch_Num);
 2c6:	ea 81       	ldd	r30, Y+2	; 0x02
 2c8:	fb 81       	ldd	r31, Y+3	; 0x03
 2ca:	80 81       	ld	r24, Z
 2cc:	48 2f       	mov	r20, r24
 2ce:	20 91 29 01 	lds	r18, 0x0129
 2d2:	30 91 2a 01 	lds	r19, 0x012A
 2d6:	8c 81       	ldd	r24, Y+4	; 0x04
 2d8:	88 2f       	mov	r24, r24
 2da:	90 e0       	ldi	r25, 0x00	; 0
 2dc:	88 0f       	add	r24, r24
 2de:	99 1f       	adc	r25, r25
 2e0:	f9 01       	movw	r30, r18
 2e2:	e8 0f       	add	r30, r24
 2e4:	f9 1f       	adc	r31, r25
 2e6:	81 81       	ldd	r24, Z+1	; 0x01
 2e8:	28 2f       	mov	r18, r24
 2ea:	30 e0       	ldi	r19, 0x00	; 0
 2ec:	81 e0       	ldi	r24, 0x01	; 1
 2ee:	90 e0       	ldi	r25, 0x00	; 0
 2f0:	02 2e       	mov	r0, r18
 2f2:	02 c0       	rjmp	.+4      	; 0x2f8 <Dio_WriteChannel+0x10c>
 2f4:	88 0f       	add	r24, r24
 2f6:	99 1f       	adc	r25, r25
 2f8:	0a 94       	dec	r0
 2fa:	e2 f7       	brpl	.-8      	; 0x2f4 <Dio_WriteChannel+0x108>
 2fc:	84 2b       	or	r24, r20
 2fe:	ea 81       	ldd	r30, Y+2	; 0x02
 300:	fb 81       	ldd	r31, Y+3	; 0x03
 302:	80 83       	st	Z, r24
 304:	23 c0       	rjmp	.+70     	; 0x34c <Dio_WriteChannel+0x160>
		}
		else if(Level == STD_LOW)
 306:	8d 81       	ldd	r24, Y+5	; 0x05
 308:	88 23       	and	r24, r24
 30a:	01 f5       	brne	.+64     	; 0x34c <Dio_WriteChannel+0x160>
		{
			/* Write Logic Low */
			CLEAR_BIT(*Port_Ptr,Dio_PortChannels[ChannelId].Ch_Num);
 30c:	ea 81       	ldd	r30, Y+2	; 0x02
 30e:	fb 81       	ldd	r31, Y+3	; 0x03
 310:	80 81       	ld	r24, Z
 312:	48 2f       	mov	r20, r24
 314:	20 91 29 01 	lds	r18, 0x0129
 318:	30 91 2a 01 	lds	r19, 0x012A
 31c:	8c 81       	ldd	r24, Y+4	; 0x04
 31e:	88 2f       	mov	r24, r24
 320:	90 e0       	ldi	r25, 0x00	; 0
 322:	88 0f       	add	r24, r24
 324:	99 1f       	adc	r25, r25
 326:	f9 01       	movw	r30, r18
 328:	e8 0f       	add	r30, r24
 32a:	f9 1f       	adc	r31, r25
 32c:	81 81       	ldd	r24, Z+1	; 0x01
 32e:	28 2f       	mov	r18, r24
 330:	30 e0       	ldi	r19, 0x00	; 0
 332:	81 e0       	ldi	r24, 0x01	; 1
 334:	90 e0       	ldi	r25, 0x00	; 0
 336:	02 2e       	mov	r0, r18
 338:	02 c0       	rjmp	.+4      	; 0x33e <Dio_WriteChannel+0x152>
 33a:	88 0f       	add	r24, r24
 33c:	99 1f       	adc	r25, r25
 33e:	0a 94       	dec	r0
 340:	e2 f7       	brpl	.-8      	; 0x33a <Dio_WriteChannel+0x14e>
 342:	80 95       	com	r24
 344:	84 23       	and	r24, r20
 346:	ea 81       	ldd	r30, Y+2	; 0x02
 348:	fb 81       	ldd	r31, Y+3	; 0x03
 34a:	80 83       	st	Z, r24
	else
	{
		/* No Action Required */
	}

}
 34c:	27 96       	adiw	r28, 0x07	; 7
 34e:	0f b6       	in	r0, 0x3f	; 63
 350:	f8 94       	cli
 352:	de bf       	out	0x3e, r29	; 62
 354:	0f be       	out	0x3f, r0	; 63
 356:	cd bf       	out	0x3d, r28	; 61
 358:	cf 91       	pop	r28
 35a:	df 91       	pop	r29
 35c:	08 95       	ret

0000035e <Dio_ReadChannel>:
* Parameters (out): None
* Return value: Dio_LevelType
* Description: Function to return the value of the specified DIO channel.
************************************************************************************/
Dio_LevelType Dio_ReadChannel(Dio_ChannelType ChannelId)
{
 35e:	df 93       	push	r29
 360:	cf 93       	push	r28
 362:	cd b7       	in	r28, 0x3d	; 61
 364:	de b7       	in	r29, 0x3e	; 62
 366:	28 97       	sbiw	r28, 0x08	; 8
 368:	0f b6       	in	r0, 0x3f	; 63
 36a:	f8 94       	cli
 36c:	de bf       	out	0x3e, r29	; 62
 36e:	0f be       	out	0x3f, r0	; 63
 370:	cd bf       	out	0x3d, r28	; 61
 372:	8d 83       	std	Y+5, r24	; 0x05
	Dio_PortLevelType * PIN_Ptr = NULL_PTR;
 374:	1c 82       	std	Y+4, r1	; 0x04
 376:	1b 82       	std	Y+3, r1	; 0x03
	Dio_LevelType output = STD_LOW;
 378:	1a 82       	std	Y+2, r1	; 0x02
	boolean error = FALSE;
 37a:	19 82       	std	Y+1, r1	; 0x01

#if (DIO_DEV_ERROR_DETECT == STD_ON)
	/* Check if the Driver is initialized before using this function */
	if (DIO_NOT_INITIALIZED == Dio_Status)
 37c:	80 91 2b 01 	lds	r24, 0x012B
 380:	88 23       	and	r24, r24
 382:	49 f4       	brne	.+18     	; 0x396 <Dio_ReadChannel+0x38>
	{
		Det_ReportError(DIO_MODULE_ID, DIO_INSTANCE_ID,
 384:	88 e7       	ldi	r24, 0x78	; 120
 386:	90 e0       	ldi	r25, 0x00	; 0
 388:	60 e0       	ldi	r22, 0x00	; 0
 38a:	40 e0       	ldi	r20, 0x00	; 0
 38c:	20 ef       	ldi	r18, 0xF0	; 240
 38e:	0e 94 c8 00 	call	0x190	; 0x190 <Det_ReportError>
				DIO_READ_CHANNEL_SID, DIO_E_UNINIT);
		error = TRUE;
 392:	81 e0       	ldi	r24, 0x01	; 1
 394:	89 83       	std	Y+1, r24	; 0x01
	else
	{
		/* No Action Required */
	}
	/* Check if the used channel is within the valid range */
	if (DIO_CONFIGURED_CHANNLES <= ChannelId)
 396:	8d 81       	ldd	r24, Y+5	; 0x05
 398:	82 30       	cpi	r24, 0x02	; 2
 39a:	48 f0       	brcs	.+18     	; 0x3ae <Dio_ReadChannel+0x50>
	{

		Det_ReportError(DIO_MODULE_ID, DIO_INSTANCE_ID,
 39c:	88 e7       	ldi	r24, 0x78	; 120
 39e:	90 e0       	ldi	r25, 0x00	; 0
 3a0:	60 e0       	ldi	r22, 0x00	; 0
 3a2:	40 e0       	ldi	r20, 0x00	; 0
 3a4:	2a e0       	ldi	r18, 0x0A	; 10
 3a6:	0e 94 c8 00 	call	0x190	; 0x190 <Det_ReportError>
				DIO_READ_CHANNEL_SID, DIO_E_PARAM_INVALID_CHANNEL_ID);
		error = TRUE;
 3aa:	81 e0       	ldi	r24, 0x01	; 1
 3ac:	89 83       	std	Y+1, r24	; 0x01
		/* No Action Required */
	}
#endif

	/* In-case there are no errors */
	if(FALSE == error)
 3ae:	89 81       	ldd	r24, Y+1	; 0x01
 3b0:	88 23       	and	r24, r24
 3b2:	09 f0       	breq	.+2      	; 0x3b6 <Dio_ReadChannel+0x58>
 3b4:	65 c0       	rjmp	.+202    	; 0x480 <__stack+0x21>
	{
		/* Point to the correct PIN register according to the Port Id stored in the Port_Num member */
		switch(Dio_PortChannels[ChannelId].Port_Num)
 3b6:	20 91 29 01 	lds	r18, 0x0129
 3ba:	30 91 2a 01 	lds	r19, 0x012A
 3be:	8d 81       	ldd	r24, Y+5	; 0x05
 3c0:	88 2f       	mov	r24, r24
 3c2:	90 e0       	ldi	r25, 0x00	; 0
 3c4:	88 0f       	add	r24, r24
 3c6:	99 1f       	adc	r25, r25
 3c8:	f9 01       	movw	r30, r18
 3ca:	e8 0f       	add	r30, r24
 3cc:	f9 1f       	adc	r31, r25
 3ce:	80 81       	ld	r24, Z
 3d0:	28 2f       	mov	r18, r24
 3d2:	30 e0       	ldi	r19, 0x00	; 0
 3d4:	3f 83       	std	Y+7, r19	; 0x07
 3d6:	2e 83       	std	Y+6, r18	; 0x06
 3d8:	8e 81       	ldd	r24, Y+6	; 0x06
 3da:	9f 81       	ldd	r25, Y+7	; 0x07
 3dc:	81 30       	cpi	r24, 0x01	; 1
 3de:	91 05       	cpc	r25, r1
 3e0:	d1 f0       	breq	.+52     	; 0x416 <Dio_ReadChannel+0xb8>
 3e2:	2e 81       	ldd	r18, Y+6	; 0x06
 3e4:	3f 81       	ldd	r19, Y+7	; 0x07
 3e6:	22 30       	cpi	r18, 0x02	; 2
 3e8:	31 05       	cpc	r19, r1
 3ea:	2c f4       	brge	.+10     	; 0x3f6 <Dio_ReadChannel+0x98>
 3ec:	8e 81       	ldd	r24, Y+6	; 0x06
 3ee:	9f 81       	ldd	r25, Y+7	; 0x07
 3f0:	00 97       	sbiw	r24, 0x00	; 0
 3f2:	61 f0       	breq	.+24     	; 0x40c <Dio_ReadChannel+0xae>
 3f4:	1e c0       	rjmp	.+60     	; 0x432 <Dio_ReadChannel+0xd4>
 3f6:	2e 81       	ldd	r18, Y+6	; 0x06
 3f8:	3f 81       	ldd	r19, Y+7	; 0x07
 3fa:	22 30       	cpi	r18, 0x02	; 2
 3fc:	31 05       	cpc	r19, r1
 3fe:	81 f0       	breq	.+32     	; 0x420 <Dio_ReadChannel+0xc2>
 400:	8e 81       	ldd	r24, Y+6	; 0x06
 402:	9f 81       	ldd	r25, Y+7	; 0x07
 404:	83 30       	cpi	r24, 0x03	; 3
 406:	91 05       	cpc	r25, r1
 408:	81 f0       	breq	.+32     	; 0x42a <Dio_ReadChannel+0xcc>
 40a:	13 c0       	rjmp	.+38     	; 0x432 <Dio_ReadChannel+0xd4>
		{
		case 0:	PIN_Ptr = &PINA_REG;
 40c:	89 e3       	ldi	r24, 0x39	; 57
 40e:	90 e0       	ldi	r25, 0x00	; 0
 410:	9c 83       	std	Y+4, r25	; 0x04
 412:	8b 83       	std	Y+3, r24	; 0x03
 414:	0e c0       	rjmp	.+28     	; 0x432 <Dio_ReadChannel+0xd4>
		break;
		case 1:	PIN_Ptr = &PINB_REG;
 416:	86 e3       	ldi	r24, 0x36	; 54
 418:	90 e0       	ldi	r25, 0x00	; 0
 41a:	9c 83       	std	Y+4, r25	; 0x04
 41c:	8b 83       	std	Y+3, r24	; 0x03
 41e:	09 c0       	rjmp	.+18     	; 0x432 <Dio_ReadChannel+0xd4>
		break;
		case 2:	PIN_Ptr = &PINC_REG;
 420:	83 e3       	ldi	r24, 0x33	; 51
 422:	90 e0       	ldi	r25, 0x00	; 0
 424:	9c 83       	std	Y+4, r25	; 0x04
 426:	8b 83       	std	Y+3, r24	; 0x03
 428:	04 c0       	rjmp	.+8      	; 0x432 <Dio_ReadChannel+0xd4>
		break;
		case 3:	PIN_Ptr = &PIND_REG;
 42a:	80 e3       	ldi	r24, 0x30	; 48
 42c:	90 e0       	ldi	r25, 0x00	; 0
 42e:	9c 83       	std	Y+4, r25	; 0x04
 430:	8b 83       	std	Y+3, r24	; 0x03
		break;
		}
		/* Read the required channel */
		if(BIT_IS_SET(*PIN_Ptr,Dio_PortChannels[ChannelId].Ch_Num))
 432:	eb 81       	ldd	r30, Y+3	; 0x03
 434:	fc 81       	ldd	r31, Y+4	; 0x04
 436:	80 81       	ld	r24, Z
 438:	48 2f       	mov	r20, r24
 43a:	50 e0       	ldi	r21, 0x00	; 0
 43c:	20 91 29 01 	lds	r18, 0x0129
 440:	30 91 2a 01 	lds	r19, 0x012A
 444:	8d 81       	ldd	r24, Y+5	; 0x05
 446:	88 2f       	mov	r24, r24
 448:	90 e0       	ldi	r25, 0x00	; 0
 44a:	88 0f       	add	r24, r24
 44c:	99 1f       	adc	r25, r25
 44e:	f9 01       	movw	r30, r18
 450:	e8 0f       	add	r30, r24
 452:	f9 1f       	adc	r31, r25
 454:	81 81       	ldd	r24, Z+1	; 0x01
 456:	88 2f       	mov	r24, r24
 458:	90 e0       	ldi	r25, 0x00	; 0
 45a:	9a 01       	movw	r18, r20
 45c:	02 c0       	rjmp	.+4      	; 0x462 <__stack+0x3>
 45e:	35 95       	asr	r19
 460:	27 95       	ror	r18
 462:	8a 95       	dec	r24
 464:	e2 f7       	brpl	.-8      	; 0x45e <Dio_ReadChannel+0x100>
 466:	c9 01       	movw	r24, r18
 468:	81 70       	andi	r24, 0x01	; 1
 46a:	90 70       	andi	r25, 0x00	; 0
 46c:	88 23       	and	r24, r24
 46e:	19 f0       	breq	.+6      	; 0x476 <__stack+0x17>
		{
			output = STD_HIGH;
 470:	81 e0       	ldi	r24, 0x01	; 1
 472:	8a 83       	std	Y+2, r24	; 0x02
 474:	01 c0       	rjmp	.+2      	; 0x478 <__stack+0x19>
		}
		else
		{
			output = STD_LOW;
 476:	1a 82       	std	Y+2, r1	; 0x02
		}
		return output;
 478:	8a 81       	ldd	r24, Y+2	; 0x02
 47a:	88 87       	std	Y+8, r24	; 0x08
	}
	else
	{
		/* No Action Required */
	}
}
 47c:	88 85       	ldd	r24, Y+8	; 0x08
 47e:	00 c0       	rjmp	.+0      	; 0x480 <__stack+0x21>
 480:	28 96       	adiw	r28, 0x08	; 8
 482:	0f b6       	in	r0, 0x3f	; 63
 484:	f8 94       	cli
 486:	de bf       	out	0x3e, r29	; 62
 488:	0f be       	out	0x3f, r0	; 63
 48a:	cd bf       	out	0x3d, r28	; 61
 48c:	cf 91       	pop	r28
 48e:	df 91       	pop	r29
 490:	08 95       	ret

00000492 <Dio_FlipChannel>:
* Return value: Dio_LevelType
* Description: Function to flip the level of a channel and return the level of the channel after flip.
************************************************************************************/
#if (DIO_FLIP_CHANNEL_API == STD_ON)
Dio_LevelType Dio_FlipChannel(Dio_ChannelType ChannelId)
{
 492:	df 93       	push	r29
 494:	cf 93       	push	r28
 496:	cd b7       	in	r28, 0x3d	; 61
 498:	de b7       	in	r29, 0x3e	; 62
 49a:	2a 97       	sbiw	r28, 0x0a	; 10
 49c:	0f b6       	in	r0, 0x3f	; 63
 49e:	f8 94       	cli
 4a0:	de bf       	out	0x3e, r29	; 62
 4a2:	0f be       	out	0x3f, r0	; 63
 4a4:	cd bf       	out	0x3d, r28	; 61
 4a6:	8f 83       	std	Y+7, r24	; 0x07
	Dio_PortLevelType * Port_Ptr = NULL_PTR;
 4a8:	1e 82       	std	Y+6, r1	; 0x06
 4aa:	1d 82       	std	Y+5, r1	; 0x05
	Dio_PortLevelType * PIN_Ptr = NULL_PTR;
 4ac:	1c 82       	std	Y+4, r1	; 0x04
 4ae:	1b 82       	std	Y+3, r1	; 0x03
	Dio_LevelType output = STD_LOW;
 4b0:	1a 82       	std	Y+2, r1	; 0x02
	boolean error = FALSE;
 4b2:	19 82       	std	Y+1, r1	; 0x01

#if (DIO_DEV_ERROR_DETECT == STD_ON)
	/* Check if the Driver is initialized before using this function */
	if (DIO_NOT_INITIALIZED == Dio_Status)
 4b4:	80 91 2b 01 	lds	r24, 0x012B
 4b8:	88 23       	and	r24, r24
 4ba:	49 f4       	brne	.+18     	; 0x4ce <Dio_FlipChannel+0x3c>
	{
		Det_ReportError(DIO_MODULE_ID, DIO_INSTANCE_ID,
 4bc:	88 e7       	ldi	r24, 0x78	; 120
 4be:	90 e0       	ldi	r25, 0x00	; 0
 4c0:	60 e0       	ldi	r22, 0x00	; 0
 4c2:	41 e1       	ldi	r20, 0x11	; 17
 4c4:	20 ef       	ldi	r18, 0xF0	; 240
 4c6:	0e 94 c8 00 	call	0x190	; 0x190 <Det_ReportError>
				DIO_FLIP_CHANNEL_SID, DIO_E_UNINIT);
		error = TRUE;
 4ca:	81 e0       	ldi	r24, 0x01	; 1
 4cc:	89 83       	std	Y+1, r24	; 0x01
	else
	{
		/* No Action Required */
	}
	/* Check if the used channel is within the valid range */
	if (DIO_CONFIGURED_CHANNLES <= ChannelId)
 4ce:	8f 81       	ldd	r24, Y+7	; 0x07
 4d0:	82 30       	cpi	r24, 0x02	; 2
 4d2:	48 f0       	brcs	.+18     	; 0x4e6 <Dio_FlipChannel+0x54>
	{

		Det_ReportError(DIO_MODULE_ID, DIO_INSTANCE_ID,
 4d4:	88 e7       	ldi	r24, 0x78	; 120
 4d6:	90 e0       	ldi	r25, 0x00	; 0
 4d8:	60 e0       	ldi	r22, 0x00	; 0
 4da:	41 e1       	ldi	r20, 0x11	; 17
 4dc:	2a e0       	ldi	r18, 0x0A	; 10
 4de:	0e 94 c8 00 	call	0x190	; 0x190 <Det_ReportError>
				DIO_FLIP_CHANNEL_SID, DIO_E_PARAM_INVALID_CHANNEL_ID);
		error = TRUE;
 4e2:	81 e0       	ldi	r24, 0x01	; 1
 4e4:	89 83       	std	Y+1, r24	; 0x01
		/* No Action Required */
	}
#endif

	/* In-case there are no errors */
	if(FALSE == error)
 4e6:	89 81       	ldd	r24, Y+1	; 0x01
 4e8:	88 23       	and	r24, r24
 4ea:	09 f0       	breq	.+2      	; 0x4ee <Dio_FlipChannel+0x5c>
 4ec:	b4 c0       	rjmp	.+360    	; 0x656 <Dio_FlipChannel+0x1c4>
	{
		/* Point to the correct PIN & PORT register according to the Port Id stored in the Port_Num member */
		switch(Dio_PortChannels[ChannelId].Port_Num)
 4ee:	20 91 29 01 	lds	r18, 0x0129
 4f2:	30 91 2a 01 	lds	r19, 0x012A
 4f6:	8f 81       	ldd	r24, Y+7	; 0x07
 4f8:	88 2f       	mov	r24, r24
 4fa:	90 e0       	ldi	r25, 0x00	; 0
 4fc:	88 0f       	add	r24, r24
 4fe:	99 1f       	adc	r25, r25
 500:	f9 01       	movw	r30, r18
 502:	e8 0f       	add	r30, r24
 504:	f9 1f       	adc	r31, r25
 506:	80 81       	ld	r24, Z
 508:	28 2f       	mov	r18, r24
 50a:	30 e0       	ldi	r19, 0x00	; 0
 50c:	39 87       	std	Y+9, r19	; 0x09
 50e:	28 87       	std	Y+8, r18	; 0x08
 510:	88 85       	ldd	r24, Y+8	; 0x08
 512:	99 85       	ldd	r25, Y+9	; 0x09
 514:	81 30       	cpi	r24, 0x01	; 1
 516:	91 05       	cpc	r25, r1
 518:	f1 f0       	breq	.+60     	; 0x556 <Dio_FlipChannel+0xc4>
 51a:	28 85       	ldd	r18, Y+8	; 0x08
 51c:	39 85       	ldd	r19, Y+9	; 0x09
 51e:	22 30       	cpi	r18, 0x02	; 2
 520:	31 05       	cpc	r19, r1
 522:	2c f4       	brge	.+10     	; 0x52e <Dio_FlipChannel+0x9c>
 524:	88 85       	ldd	r24, Y+8	; 0x08
 526:	99 85       	ldd	r25, Y+9	; 0x09
 528:	00 97       	sbiw	r24, 0x00	; 0
 52a:	61 f0       	breq	.+24     	; 0x544 <Dio_FlipChannel+0xb2>
 52c:	2e c0       	rjmp	.+92     	; 0x58a <Dio_FlipChannel+0xf8>
 52e:	28 85       	ldd	r18, Y+8	; 0x08
 530:	39 85       	ldd	r19, Y+9	; 0x09
 532:	22 30       	cpi	r18, 0x02	; 2
 534:	31 05       	cpc	r19, r1
 536:	c1 f0       	breq	.+48     	; 0x568 <Dio_FlipChannel+0xd6>
 538:	88 85       	ldd	r24, Y+8	; 0x08
 53a:	99 85       	ldd	r25, Y+9	; 0x09
 53c:	83 30       	cpi	r24, 0x03	; 3
 53e:	91 05       	cpc	r25, r1
 540:	e1 f0       	breq	.+56     	; 0x57a <Dio_FlipChannel+0xe8>
 542:	23 c0       	rjmp	.+70     	; 0x58a <Dio_FlipChannel+0xf8>
		{
		case 0:	Port_Ptr = &PORTA_REG;
 544:	8b e3       	ldi	r24, 0x3B	; 59
 546:	90 e0       	ldi	r25, 0x00	; 0
 548:	9e 83       	std	Y+6, r25	; 0x06
 54a:	8d 83       	std	Y+5, r24	; 0x05
		        PIN_Ptr  = &PINA_REG;
 54c:	89 e3       	ldi	r24, 0x39	; 57
 54e:	90 e0       	ldi	r25, 0x00	; 0
 550:	9c 83       	std	Y+4, r25	; 0x04
 552:	8b 83       	std	Y+3, r24	; 0x03
 554:	1a c0       	rjmp	.+52     	; 0x58a <Dio_FlipChannel+0xf8>
		break;
		case 1:	Port_Ptr = &PORTB_REG;
 556:	88 e3       	ldi	r24, 0x38	; 56
 558:	90 e0       	ldi	r25, 0x00	; 0
 55a:	9e 83       	std	Y+6, r25	; 0x06
 55c:	8d 83       	std	Y+5, r24	; 0x05
		        PIN_Ptr  = &PINB_REG;
 55e:	86 e3       	ldi	r24, 0x36	; 54
 560:	90 e0       	ldi	r25, 0x00	; 0
 562:	9c 83       	std	Y+4, r25	; 0x04
 564:	8b 83       	std	Y+3, r24	; 0x03
 566:	11 c0       	rjmp	.+34     	; 0x58a <Dio_FlipChannel+0xf8>
		break;
		case 2:	Port_Ptr = &PORTC_REG;
 568:	85 e3       	ldi	r24, 0x35	; 53
 56a:	90 e0       	ldi	r25, 0x00	; 0
 56c:	9e 83       	std	Y+6, r25	; 0x06
 56e:	8d 83       	std	Y+5, r24	; 0x05
		        PIN_Ptr  = &PINC_REG;
 570:	83 e3       	ldi	r24, 0x33	; 51
 572:	90 e0       	ldi	r25, 0x00	; 0
 574:	9c 83       	std	Y+4, r25	; 0x04
 576:	8b 83       	std	Y+3, r24	; 0x03
 578:	08 c0       	rjmp	.+16     	; 0x58a <Dio_FlipChannel+0xf8>
		break;
		case 3:	Port_Ptr = &PORTD_REG;
 57a:	82 e3       	ldi	r24, 0x32	; 50
 57c:	90 e0       	ldi	r25, 0x00	; 0
 57e:	9e 83       	std	Y+6, r25	; 0x06
 580:	8d 83       	std	Y+5, r24	; 0x05
		        PIN_Ptr  = &PIND_REG;
 582:	80 e3       	ldi	r24, 0x30	; 48
 584:	90 e0       	ldi	r25, 0x00	; 0
 586:	9c 83       	std	Y+4, r25	; 0x04
 588:	8b 83       	std	Y+3, r24	; 0x03
		break;
		}
		/* Read the required channel and write the required level */
		if(BIT_IS_SET(*PIN_Ptr,Dio_PortChannels[ChannelId].Ch_Num))
 58a:	eb 81       	ldd	r30, Y+3	; 0x03
 58c:	fc 81       	ldd	r31, Y+4	; 0x04
 58e:	80 81       	ld	r24, Z
 590:	48 2f       	mov	r20, r24
 592:	50 e0       	ldi	r21, 0x00	; 0
 594:	20 91 29 01 	lds	r18, 0x0129
 598:	30 91 2a 01 	lds	r19, 0x012A
 59c:	8f 81       	ldd	r24, Y+7	; 0x07
 59e:	88 2f       	mov	r24, r24
 5a0:	90 e0       	ldi	r25, 0x00	; 0
 5a2:	88 0f       	add	r24, r24
 5a4:	99 1f       	adc	r25, r25
 5a6:	f9 01       	movw	r30, r18
 5a8:	e8 0f       	add	r30, r24
 5aa:	f9 1f       	adc	r31, r25
 5ac:	81 81       	ldd	r24, Z+1	; 0x01
 5ae:	88 2f       	mov	r24, r24
 5b0:	90 e0       	ldi	r25, 0x00	; 0
 5b2:	9a 01       	movw	r18, r20
 5b4:	02 c0       	rjmp	.+4      	; 0x5ba <Dio_FlipChannel+0x128>
 5b6:	35 95       	asr	r19
 5b8:	27 95       	ror	r18
 5ba:	8a 95       	dec	r24
 5bc:	e2 f7       	brpl	.-8      	; 0x5b6 <Dio_FlipChannel+0x124>
 5be:	c9 01       	movw	r24, r18
 5c0:	81 70       	andi	r24, 0x01	; 1
 5c2:	90 70       	andi	r25, 0x00	; 0
 5c4:	88 23       	and	r24, r24
 5c6:	11 f1       	breq	.+68     	; 0x60c <Dio_FlipChannel+0x17a>
		{
			CLEAR_BIT(*Port_Ptr,Dio_PortChannels[ChannelId].Ch_Num);
 5c8:	ed 81       	ldd	r30, Y+5	; 0x05
 5ca:	fe 81       	ldd	r31, Y+6	; 0x06
 5cc:	80 81       	ld	r24, Z
 5ce:	48 2f       	mov	r20, r24
 5d0:	20 91 29 01 	lds	r18, 0x0129
 5d4:	30 91 2a 01 	lds	r19, 0x012A
 5d8:	8f 81       	ldd	r24, Y+7	; 0x07
 5da:	88 2f       	mov	r24, r24
 5dc:	90 e0       	ldi	r25, 0x00	; 0
 5de:	88 0f       	add	r24, r24
 5e0:	99 1f       	adc	r25, r25
 5e2:	f9 01       	movw	r30, r18
 5e4:	e8 0f       	add	r30, r24
 5e6:	f9 1f       	adc	r31, r25
 5e8:	81 81       	ldd	r24, Z+1	; 0x01
 5ea:	28 2f       	mov	r18, r24
 5ec:	30 e0       	ldi	r19, 0x00	; 0
 5ee:	81 e0       	ldi	r24, 0x01	; 1
 5f0:	90 e0       	ldi	r25, 0x00	; 0
 5f2:	02 2e       	mov	r0, r18
 5f4:	02 c0       	rjmp	.+4      	; 0x5fa <Dio_FlipChannel+0x168>
 5f6:	88 0f       	add	r24, r24
 5f8:	99 1f       	adc	r25, r25
 5fa:	0a 94       	dec	r0
 5fc:	e2 f7       	brpl	.-8      	; 0x5f6 <Dio_FlipChannel+0x164>
 5fe:	80 95       	com	r24
 600:	84 23       	and	r24, r20
 602:	ed 81       	ldd	r30, Y+5	; 0x05
 604:	fe 81       	ldd	r31, Y+6	; 0x06
 606:	80 83       	st	Z, r24
			output = STD_LOW;
 608:	1a 82       	std	Y+2, r1	; 0x02
 60a:	21 c0       	rjmp	.+66     	; 0x64e <Dio_FlipChannel+0x1bc>
		}
		else
		{
			SET_BIT(*Port_Ptr,Dio_PortChannels[ChannelId].Ch_Num);
 60c:	ed 81       	ldd	r30, Y+5	; 0x05
 60e:	fe 81       	ldd	r31, Y+6	; 0x06
 610:	80 81       	ld	r24, Z
 612:	48 2f       	mov	r20, r24
 614:	20 91 29 01 	lds	r18, 0x0129
 618:	30 91 2a 01 	lds	r19, 0x012A
 61c:	8f 81       	ldd	r24, Y+7	; 0x07
 61e:	88 2f       	mov	r24, r24
 620:	90 e0       	ldi	r25, 0x00	; 0
 622:	88 0f       	add	r24, r24
 624:	99 1f       	adc	r25, r25
 626:	f9 01       	movw	r30, r18
 628:	e8 0f       	add	r30, r24
 62a:	f9 1f       	adc	r31, r25
 62c:	81 81       	ldd	r24, Z+1	; 0x01
 62e:	28 2f       	mov	r18, r24
 630:	30 e0       	ldi	r19, 0x00	; 0
 632:	81 e0       	ldi	r24, 0x01	; 1
 634:	90 e0       	ldi	r25, 0x00	; 0
 636:	02 2e       	mov	r0, r18
 638:	02 c0       	rjmp	.+4      	; 0x63e <Dio_FlipChannel+0x1ac>
 63a:	88 0f       	add	r24, r24
 63c:	99 1f       	adc	r25, r25
 63e:	0a 94       	dec	r0
 640:	e2 f7       	brpl	.-8      	; 0x63a <Dio_FlipChannel+0x1a8>
 642:	84 2b       	or	r24, r20
 644:	ed 81       	ldd	r30, Y+5	; 0x05
 646:	fe 81       	ldd	r31, Y+6	; 0x06
 648:	80 83       	st	Z, r24
			output = STD_HIGH;
 64a:	81 e0       	ldi	r24, 0x01	; 1
 64c:	8a 83       	std	Y+2, r24	; 0x02
		}
		return output;
 64e:	8a 81       	ldd	r24, Y+2	; 0x02
 650:	8a 87       	std	Y+10, r24	; 0x0a
	}
	else
	{
		/* No Action Required */
	}
}
 652:	8a 85       	ldd	r24, Y+10	; 0x0a
 654:	00 c0       	rjmp	.+0      	; 0x656 <Dio_FlipChannel+0x1c4>
 656:	2a 96       	adiw	r28, 0x0a	; 10
 658:	0f b6       	in	r0, 0x3f	; 63
 65a:	f8 94       	cli
 65c:	de bf       	out	0x3e, r29	; 62
 65e:	0f be       	out	0x3f, r0	; 63
 660:	cd bf       	out	0x3d, r28	; 61
 662:	cf 91       	pop	r28
 664:	df 91       	pop	r29
 666:	08 95       	ret

00000668 <Timer0_start>:
 * to be used in Call Back */
static volatile void (*g_Timer0_Call_Back_Ptr)(void) = NULL_PTR;

/*********************************************************************************************/ 
void Timer0_start(uint8 Tick_Time)
{
 668:	df 93       	push	r29
 66a:	cf 93       	push	r28
 66c:	0f 92       	push	r0
 66e:	cd b7       	in	r28, 0x3d	; 61
 670:	de b7       	in	r29, 0x3e	; 62
 672:	89 83       	std	Y+1, r24	; 0x01
	TCNT0  = 0; /* Timer0 initial value */
 674:	e2 e5       	ldi	r30, 0x52	; 82
 676:	f0 e0       	ldi	r31, 0x00	; 0
 678:	10 82       	st	Z, r1
	OCR0   = Tick_Time; /* Set Compare Register Value */
 67a:	ec e5       	ldi	r30, 0x5C	; 92
 67c:	f0 e0       	ldi	r31, 0x00	; 0
 67e:	89 81       	ldd	r24, Y+1	; 0x01
 680:	80 83       	st	Z, r24
	TIMSK |= (1<<OCIE0); /* Enable Compare Interrupt for Timer0 */
 682:	a9 e5       	ldi	r26, 0x59	; 89
 684:	b0 e0       	ldi	r27, 0x00	; 0
 686:	e9 e5       	ldi	r30, 0x59	; 89
 688:	f0 e0       	ldi	r31, 0x00	; 0
 68a:	80 81       	ld	r24, Z
 68c:	82 60       	ori	r24, 0x02	; 2
 68e:	8c 93       	st	X, r24
	 * 1. Non PWM mode FOC0=1
	 * 2. CTC Mode WGM01=1 & WGM00=0
	 * 3. No need for OC0 so COM00=0 & COM01=0  
	 * 4. start Timer0 by initiating clock = F_CPU/1024 CS00=1 CS01=0 CS02=1
	 */
	TCCR0  = (1<<FOC0) | (1<<WGM01) | (1<<CS02) | (1<<CS00);
 690:	e3 e5       	ldi	r30, 0x53	; 83
 692:	f0 e0       	ldi	r31, 0x00	; 0
 694:	8d e8       	ldi	r24, 0x8D	; 141
 696:	80 83       	st	Z, r24
}
 698:	0f 90       	pop	r0
 69a:	cf 91       	pop	r28
 69c:	df 91       	pop	r29
 69e:	08 95       	ret

000006a0 <Timer0_setCallBack>:
/*********************************************************************************************/
void Timer0_setCallBack(void(*Ptr2Func)(void))
{
 6a0:	df 93       	push	r29
 6a2:	cf 93       	push	r28
 6a4:	00 d0       	rcall	.+0      	; 0x6a6 <Timer0_setCallBack+0x6>
 6a6:	cd b7       	in	r28, 0x3d	; 61
 6a8:	de b7       	in	r29, 0x3e	; 62
 6aa:	9a 83       	std	Y+2, r25	; 0x02
 6ac:	89 83       	std	Y+1, r24	; 0x01
	g_Timer0_Call_Back_Ptr = Ptr2Func;
 6ae:	89 81       	ldd	r24, Y+1	; 0x01
 6b0:	9a 81       	ldd	r25, Y+2	; 0x02
 6b2:	90 93 2d 01 	sts	0x012D, r25
 6b6:	80 93 2c 01 	sts	0x012C, r24
}
 6ba:	0f 90       	pop	r0
 6bc:	0f 90       	pop	r0
 6be:	cf 91       	pop	r28
 6c0:	df 91       	pop	r29
 6c2:	08 95       	ret

000006c4 <__vector_19>:
/*********************************************************************************************/
/* Interrupt Service Routine for Timer0 compare mode */
ISR(TIMER0_COMP_vect)
{
 6c4:	1f 92       	push	r1
 6c6:	0f 92       	push	r0
 6c8:	0f b6       	in	r0, 0x3f	; 63
 6ca:	0f 92       	push	r0
 6cc:	11 24       	eor	r1, r1
 6ce:	2f 93       	push	r18
 6d0:	3f 93       	push	r19
 6d2:	4f 93       	push	r20
 6d4:	5f 93       	push	r21
 6d6:	6f 93       	push	r22
 6d8:	7f 93       	push	r23
 6da:	8f 93       	push	r24
 6dc:	9f 93       	push	r25
 6de:	af 93       	push	r26
 6e0:	bf 93       	push	r27
 6e2:	ef 93       	push	r30
 6e4:	ff 93       	push	r31
 6e6:	df 93       	push	r29
 6e8:	cf 93       	push	r28
 6ea:	cd b7       	in	r28, 0x3d	; 61
 6ec:	de b7       	in	r29, 0x3e	; 62
	/* Check if the Timer0_setCallBack is already called */
	if(g_Timer0_Call_Back_Ptr != NULL_PTR)
 6ee:	80 91 2c 01 	lds	r24, 0x012C
 6f2:	90 91 2d 01 	lds	r25, 0x012D
 6f6:	00 97       	sbiw	r24, 0x00	; 0
 6f8:	29 f0       	breq	.+10     	; 0x704 <__vector_19+0x40>
	{
		(*g_Timer0_Call_Back_Ptr)(); //call the function in the scheduler using call-back concept
 6fa:	e0 91 2c 01 	lds	r30, 0x012C
 6fe:	f0 91 2d 01 	lds	r31, 0x012D
 702:	09 95       	icall
	}
}
 704:	cf 91       	pop	r28
 706:	df 91       	pop	r29
 708:	ff 91       	pop	r31
 70a:	ef 91       	pop	r30
 70c:	bf 91       	pop	r27
 70e:	af 91       	pop	r26
 710:	9f 91       	pop	r25
 712:	8f 91       	pop	r24
 714:	7f 91       	pop	r23
 716:	6f 91       	pop	r22
 718:	5f 91       	pop	r21
 71a:	4f 91       	pop	r20
 71c:	3f 91       	pop	r19
 71e:	2f 91       	pop	r18
 720:	0f 90       	pop	r0
 722:	0f be       	out	0x3f, r0	; 63
 724:	0f 90       	pop	r0
 726:	1f 90       	pop	r1
 728:	18 95       	reti

0000072a <LED_setOn>:

/* LED Configurations Structure */

/*********************************************************************************************/
void LED_setOn(void)
{
 72a:	df 93       	push	r29
 72c:	cf 93       	push	r28
 72e:	cd b7       	in	r28, 0x3d	; 61
 730:	de b7       	in	r29, 0x3e	; 62
	Dio_WriteChannel(DioConf_LED_CHANNEL_ID_INDEX,LED_ON); // LED ON
 732:	80 e0       	ldi	r24, 0x00	; 0
 734:	61 e0       	ldi	r22, 0x01	; 1
 736:	0e 94 f6 00 	call	0x1ec	; 0x1ec <Dio_WriteChannel>
}
 73a:	cf 91       	pop	r28
 73c:	df 91       	pop	r29
 73e:	08 95       	ret

00000740 <LED_setOff>:
/*********************************************************************************************/
void LED_setOff(void)
{
 740:	df 93       	push	r29
 742:	cf 93       	push	r28
 744:	cd b7       	in	r28, 0x3d	; 61
 746:	de b7       	in	r29, 0x3e	; 62
	Dio_WriteChannel(DioConf_LED_CHANNEL_ID_INDEX,LED_OFF); // LED OFF
 748:	80 e0       	ldi	r24, 0x00	; 0
 74a:	60 e0       	ldi	r22, 0x00	; 0
 74c:	0e 94 f6 00 	call	0x1ec	; 0x1ec <Dio_WriteChannel>
}
 750:	cf 91       	pop	r28
 752:	df 91       	pop	r29
 754:	08 95       	ret

00000756 <LED_refreshOutput>:
/*********************************************************************************************/
void LED_refreshOutput(void)
{
 756:	df 93       	push	r29
 758:	cf 93       	push	r28
 75a:	0f 92       	push	r0
 75c:	cd b7       	in	r28, 0x3d	; 61
 75e:	de b7       	in	r29, 0x3e	; 62
	Dio_LevelType state = Dio_ReadChannel(DioConf_LED_CHANNEL_ID_INDEX);
 760:	80 e0       	ldi	r24, 0x00	; 0
 762:	0e 94 af 01 	call	0x35e	; 0x35e <Dio_ReadChannel>
 766:	89 83       	std	Y+1, r24	; 0x01
	Dio_WriteChannel(DioConf_LED_CHANNEL_ID_INDEX,state); // re-write the same value
 768:	80 e0       	ldi	r24, 0x00	; 0
 76a:	69 81       	ldd	r22, Y+1	; 0x01
 76c:	0e 94 f6 00 	call	0x1ec	; 0x1ec <Dio_WriteChannel>
}
 770:	0f 90       	pop	r0
 772:	cf 91       	pop	r28
 774:	df 91       	pop	r29
 776:	08 95       	ret

00000778 <LED_toggle>:
/*********************************************************************************************/
void LED_toggle(void)
{
 778:	df 93       	push	r29
 77a:	cf 93       	push	r28
 77c:	0f 92       	push	r0
 77e:	cd b7       	in	r28, 0x3d	; 61
 780:	de b7       	in	r29, 0x3e	; 62
	Dio_LevelType state = Dio_FlipChannel(DioConf_LED_CHANNEL_ID_INDEX);
 782:	80 e0       	ldi	r24, 0x00	; 0
 784:	0e 94 49 02 	call	0x492	; 0x492 <Dio_FlipChannel>
 788:	89 83       	std	Y+1, r24	; 0x01
}
 78a:	0f 90       	pop	r0
 78c:	cf 91       	pop	r28
 78e:	df 91       	pop	r29
 790:	08 95       	ret

00000792 <Os_start>:
/* Global variable to indicate the the timer has a new tick */
static uint8 g_New_Time_Tick_Flag = 0;

/*********************************************************************************************/
void Os_start(void)
{
 792:	df 93       	push	r29
 794:	cf 93       	push	r28
 796:	cd b7       	in	r28, 0x3d	; 61
 798:	de b7       	in	r29, 0x3e	; 62
	/* 
	 * Set the Call Back function call to Scheduler_New_Timer_Tick
	 * this function will be called every Timer0 Compare Interrupt(20ms)
	 */
	Timer0_setCallBack(Os_newTimerTick);
 79a:	8b ed       	ldi	r24, 0xDB	; 219
 79c:	93 e0       	ldi	r25, 0x03	; 3
 79e:	0e 94 50 03 	call	0x6a0	; 0x6a0 <Timer0_setCallBack>

	/* Start Timer0 in Compare Mode to generate interrupt every 20ms */
	Timer0_start(OS_BASE_TIME);
 7a2:	84 e1       	ldi	r24, 0x14	; 20
 7a4:	0e 94 34 03 	call	0x668	; 0x668 <Timer0_start>

	/* Execute the Init Task */
	Init_Task();
 7a8:	0e 94 49 00 	call	0x92	; 0x92 <Init_Task>

	/* Start the Os Scheduler */
	Os_scheduler();
 7ac:	0e 94 ea 03 	call	0x7d4	; 0x7d4 <Os_scheduler>
}
 7b0:	cf 91       	pop	r28
 7b2:	df 91       	pop	r29
 7b4:	08 95       	ret

000007b6 <Os_newTimerTick>:
/*********************************************************************************************/
void Os_newTimerTick(void)
{
 7b6:	df 93       	push	r29
 7b8:	cf 93       	push	r28
 7ba:	cd b7       	in	r28, 0x3d	; 61
 7bc:	de b7       	in	r29, 0x3e	; 62
	/* increment the Os time by OS_BASE_TIME */
	g_Time_Tick_Count   += OS_BASE_TIME;
 7be:	80 91 2e 01 	lds	r24, 0x012E
 7c2:	8c 5e       	subi	r24, 0xEC	; 236
 7c4:	80 93 2e 01 	sts	0x012E, r24

	/* Set the flag to 1 to indicate that there is a new timer tick */
	g_New_Time_Tick_Flag = 1;
 7c8:	81 e0       	ldi	r24, 0x01	; 1
 7ca:	80 93 2f 01 	sts	0x012F, r24
}
 7ce:	cf 91       	pop	r28
 7d0:	df 91       	pop	r29
 7d2:	08 95       	ret

000007d4 <Os_scheduler>:
/*********************************************************************************************/
void Os_scheduler(void)
{
 7d4:	df 93       	push	r29
 7d6:	cf 93       	push	r28
 7d8:	00 d0       	rcall	.+0      	; 0x7da <Os_scheduler+0x6>
 7da:	cd b7       	in	r28, 0x3d	; 61
 7dc:	de b7       	in	r29, 0x3e	; 62
	while(1)
	{
		/* Code is only executed in case there is a new timer tick */
		if(g_New_Time_Tick_Flag == 1)
 7de:	80 91 2f 01 	lds	r24, 0x012F
 7e2:	81 30       	cpi	r24, 0x01	; 1
 7e4:	e1 f7       	brne	.-8      	; 0x7de <Os_scheduler+0xa>
		{
			switch(g_Time_Tick_Count)
 7e6:	80 91 2e 01 	lds	r24, 0x012E
 7ea:	28 2f       	mov	r18, r24
 7ec:	30 e0       	ldi	r19, 0x00	; 0
 7ee:	3a 83       	std	Y+2, r19	; 0x02
 7f0:	29 83       	std	Y+1, r18	; 0x01
 7f2:	89 81       	ldd	r24, Y+1	; 0x01
 7f4:	9a 81       	ldd	r25, Y+2	; 0x02
 7f6:	8c 33       	cpi	r24, 0x3C	; 60
 7f8:	91 05       	cpc	r25, r1
 7fa:	61 f1       	breq	.+88     	; 0x854 <Os_scheduler+0x80>
 7fc:	29 81       	ldd	r18, Y+1	; 0x01
 7fe:	3a 81       	ldd	r19, Y+2	; 0x02
 800:	2d 33       	cpi	r18, 0x3D	; 61
 802:	31 05       	cpc	r19, r1
 804:	5c f4       	brge	.+22     	; 0x81c <Os_scheduler+0x48>
 806:	89 81       	ldd	r24, Y+1	; 0x01
 808:	9a 81       	ldd	r25, Y+2	; 0x02
 80a:	84 31       	cpi	r24, 0x14	; 20
 80c:	91 05       	cpc	r25, r1
 80e:	b1 f0       	breq	.+44     	; 0x83c <Os_scheduler+0x68>
 810:	29 81       	ldd	r18, Y+1	; 0x01
 812:	3a 81       	ldd	r19, Y+2	; 0x02
 814:	28 32       	cpi	r18, 0x28	; 40
 816:	31 05       	cpc	r19, r1
 818:	b1 f0       	breq	.+44     	; 0x846 <Os_scheduler+0x72>
 81a:	e1 cf       	rjmp	.-62     	; 0x7de <Os_scheduler+0xa>
 81c:	89 81       	ldd	r24, Y+1	; 0x01
 81e:	9a 81       	ldd	r25, Y+2	; 0x02
 820:	84 36       	cpi	r24, 0x64	; 100
 822:	91 05       	cpc	r25, r1
 824:	59 f0       	breq	.+22     	; 0x83c <Os_scheduler+0x68>
 826:	29 81       	ldd	r18, Y+1	; 0x01
 828:	3a 81       	ldd	r19, Y+2	; 0x02
 82a:	28 37       	cpi	r18, 0x78	; 120
 82c:	31 05       	cpc	r19, r1
 82e:	c9 f0       	breq	.+50     	; 0x862 <Os_scheduler+0x8e>
 830:	89 81       	ldd	r24, Y+1	; 0x01
 832:	9a 81       	ldd	r25, Y+2	; 0x02
 834:	80 35       	cpi	r24, 0x50	; 80
 836:	91 05       	cpc	r25, r1
 838:	31 f0       	breq	.+12     	; 0x846 <Os_scheduler+0x72>
 83a:	d1 cf       	rjmp	.-94     	; 0x7de <Os_scheduler+0xa>
			{
				case 20:
				case 100:
					Button_Task();
 83c:	0e 94 5f 00 	call	0xbe	; 0xbe <Button_Task>
					g_New_Time_Tick_Flag = 0;
 840:	10 92 2f 01 	sts	0x012F, r1
 844:	cc cf       	rjmp	.-104    	; 0x7de <Os_scheduler+0xa>
					break;
				case 40:
				case 80:
					Button_Task();
 846:	0e 94 5f 00 	call	0xbe	; 0xbe <Button_Task>
					Led_Task();
 84a:	0e 94 68 00 	call	0xd0	; 0xd0 <Led_Task>
					g_New_Time_Tick_Flag = 0;
 84e:	10 92 2f 01 	sts	0x012F, r1
 852:	c5 cf       	rjmp	.-118    	; 0x7de <Os_scheduler+0xa>
					break;
				case 60:
					Button_Task();
 854:	0e 94 5f 00 	call	0xbe	; 0xbe <Button_Task>
					App_Task();
 858:	0e 94 71 00 	call	0xe2	; 0xe2 <App_Task>
					g_New_Time_Tick_Flag = 0;
 85c:	10 92 2f 01 	sts	0x012F, r1
 860:	be cf       	rjmp	.-132    	; 0x7de <Os_scheduler+0xa>
					break;
				case 120:
					Button_Task();
 862:	0e 94 5f 00 	call	0xbe	; 0xbe <Button_Task>
					App_Task();
 866:	0e 94 71 00 	call	0xe2	; 0xe2 <App_Task>
					Led_Task();
 86a:	0e 94 68 00 	call	0xd0	; 0xd0 <Led_Task>
					g_New_Time_Tick_Flag = 0;
 86e:	10 92 2f 01 	sts	0x012F, r1
					g_Time_Tick_Count = 0;
 872:	10 92 2e 01 	sts	0x012E, r1
 876:	b3 cf       	rjmp	.-154    	; 0x7de <Os_scheduler+0xa>

00000878 <Port_Init>:
 * Parameters (out): None
 * Return value: None
 * Description: Initializes the Port Driver module.
 ************************************************************************************/
void Port_Init( const Port_ConfigType* ConfigPtr)
{
 878:	df 93       	push	r29
 87a:	cf 93       	push	r28
 87c:	cd b7       	in	r28, 0x3d	; 61
 87e:	de b7       	in	r29, 0x3e	; 62
 880:	2a 97       	sbiw	r28, 0x0a	; 10
 882:	0f b6       	in	r0, 0x3f	; 63
 884:	f8 94       	cli
 886:	de bf       	out	0x3e, r29	; 62
 888:	0f be       	out	0x3f, r0	; 63
 88a:	cd bf       	out	0x3d, r28	; 61
 88c:	98 87       	std	Y+8, r25	; 0x08
 88e:	8f 83       	std	Y+7, r24	; 0x07
	uint8 *DDR_ptr;
	uint8 *port_ptr;
#if (PORT_DEV_ERROR_DETECT == STD_ON)
	/* check if the input configuration pointer is not a NULL_PTR */
	if (NULL_PTR == ConfigPtr)
 890:	8f 81       	ldd	r24, Y+7	; 0x07
 892:	98 85       	ldd	r25, Y+8	; 0x08
 894:	00 97       	sbiw	r24, 0x00	; 0
 896:	41 f4       	brne	.+16     	; 0x8a8 <Port_Init+0x30>
	{
		Det_ReportError(PORT_MODULE_ID, PORT_INSTANCE_ID, PORT_INIT_SID,
 898:	88 e7       	ldi	r24, 0x78	; 120
 89a:	90 e0       	ldi	r25, 0x00	; 0
 89c:	60 e0       	ldi	r22, 0x00	; 0
 89e:	40 e0       	ldi	r20, 0x00	; 0
 8a0:	2c e0       	ldi	r18, 0x0C	; 12
 8a2:	0e 94 c8 00 	call	0x190	; 0x190 <Det_ReportError>
 8a6:	b4 c1       	rjmp	.+872    	; 0xc10 <Port_Init+0x398>
				PORT_E_PARAM_CONFIG);
	}
	else
	{
		port_PortChannels = ConfigPtr->Ports;
 8a8:	8f 81       	ldd	r24, Y+7	; 0x07
 8aa:	98 85       	ldd	r25, Y+8	; 0x08
 8ac:	90 93 32 01 	sts	0x0132, r25
 8b0:	80 93 31 01 	sts	0x0131, r24
		for (int i = 0; i < PORT_CONFIGURED_CHANNLES; i++) {
 8b4:	1a 82       	std	Y+2, r1	; 0x02
 8b6:	19 82       	std	Y+1, r1	; 0x01
 8b8:	a2 c1       	rjmp	.+836    	; 0xbfe <Port_Init+0x386>
			/*get port */
			switch (port_PortChannels[i].port) {
 8ba:	40 91 31 01 	lds	r20, 0x0131
 8be:	50 91 32 01 	lds	r21, 0x0132
 8c2:	29 81       	ldd	r18, Y+1	; 0x01
 8c4:	3a 81       	ldd	r19, Y+2	; 0x02
 8c6:	c9 01       	movw	r24, r18
 8c8:	88 0f       	add	r24, r24
 8ca:	99 1f       	adc	r25, r25
 8cc:	82 0f       	add	r24, r18
 8ce:	93 1f       	adc	r25, r19
 8d0:	88 0f       	add	r24, r24
 8d2:	99 1f       	adc	r25, r25
 8d4:	fa 01       	movw	r30, r20
 8d6:	e8 0f       	add	r30, r24
 8d8:	f9 1f       	adc	r31, r25
 8da:	80 81       	ld	r24, Z
 8dc:	28 2f       	mov	r18, r24
 8de:	30 e0       	ldi	r19, 0x00	; 0
 8e0:	3a 87       	std	Y+10, r19	; 0x0a
 8e2:	29 87       	std	Y+9, r18	; 0x09
 8e4:	89 85       	ldd	r24, Y+9	; 0x09
 8e6:	9a 85       	ldd	r25, Y+10	; 0x0a
 8e8:	81 30       	cpi	r24, 0x01	; 1
 8ea:	91 05       	cpc	r25, r1
 8ec:	f1 f0       	breq	.+60     	; 0x92a <Port_Init+0xb2>
 8ee:	29 85       	ldd	r18, Y+9	; 0x09
 8f0:	3a 85       	ldd	r19, Y+10	; 0x0a
 8f2:	22 30       	cpi	r18, 0x02	; 2
 8f4:	31 05       	cpc	r19, r1
 8f6:	2c f4       	brge	.+10     	; 0x902 <Port_Init+0x8a>
 8f8:	89 85       	ldd	r24, Y+9	; 0x09
 8fa:	9a 85       	ldd	r25, Y+10	; 0x0a
 8fc:	00 97       	sbiw	r24, 0x00	; 0
 8fe:	61 f0       	breq	.+24     	; 0x918 <Port_Init+0xa0>
 900:	2e c0       	rjmp	.+92     	; 0x95e <Port_Init+0xe6>
 902:	29 85       	ldd	r18, Y+9	; 0x09
 904:	3a 85       	ldd	r19, Y+10	; 0x0a
 906:	22 30       	cpi	r18, 0x02	; 2
 908:	31 05       	cpc	r19, r1
 90a:	c1 f0       	breq	.+48     	; 0x93c <Port_Init+0xc4>
 90c:	89 85       	ldd	r24, Y+9	; 0x09
 90e:	9a 85       	ldd	r25, Y+10	; 0x0a
 910:	83 30       	cpi	r24, 0x03	; 3
 912:	91 05       	cpc	r25, r1
 914:	e1 f0       	breq	.+56     	; 0x94e <Port_Init+0xd6>
 916:	23 c0       	rjmp	.+70     	; 0x95e <Port_Init+0xe6>
			case PORTA: DDR_ptr  = &DDRA_REG;
 918:	8a e3       	ldi	r24, 0x3A	; 58
 91a:	90 e0       	ldi	r25, 0x00	; 0
 91c:	9e 83       	std	Y+6, r25	; 0x06
 91e:	8d 83       	std	Y+5, r24	; 0x05
			port_ptr = &PORTA_REG;
 920:	8b e3       	ldi	r24, 0x3B	; 59
 922:	90 e0       	ldi	r25, 0x00	; 0
 924:	9c 83       	std	Y+4, r25	; 0x04
 926:	8b 83       	std	Y+3, r24	; 0x03
 928:	1a c0       	rjmp	.+52     	; 0x95e <Port_Init+0xe6>
			break;
			case PORTB: DDR_ptr  = &DDRB_REG;
 92a:	87 e3       	ldi	r24, 0x37	; 55
 92c:	90 e0       	ldi	r25, 0x00	; 0
 92e:	9e 83       	std	Y+6, r25	; 0x06
 930:	8d 83       	std	Y+5, r24	; 0x05
			port_ptr = &PORTB_REG;
 932:	88 e3       	ldi	r24, 0x38	; 56
 934:	90 e0       	ldi	r25, 0x00	; 0
 936:	9c 83       	std	Y+4, r25	; 0x04
 938:	8b 83       	std	Y+3, r24	; 0x03
 93a:	11 c0       	rjmp	.+34     	; 0x95e <Port_Init+0xe6>
			break;
			case PORTC: DDR_ptr  = &DDRC_REG;
 93c:	84 e3       	ldi	r24, 0x34	; 52
 93e:	90 e0       	ldi	r25, 0x00	; 0
 940:	9e 83       	std	Y+6, r25	; 0x06
 942:	8d 83       	std	Y+5, r24	; 0x05
			port_ptr = &PORTC_REG;
 944:	85 e3       	ldi	r24, 0x35	; 53
 946:	90 e0       	ldi	r25, 0x00	; 0
 948:	9c 83       	std	Y+4, r25	; 0x04
 94a:	8b 83       	std	Y+3, r24	; 0x03
 94c:	08 c0       	rjmp	.+16     	; 0x95e <Port_Init+0xe6>
			break;
			case PORTD: DDR_ptr  = &DDRD_REG;
 94e:	81 e3       	ldi	r24, 0x31	; 49
 950:	90 e0       	ldi	r25, 0x00	; 0
 952:	9e 83       	std	Y+6, r25	; 0x06
 954:	8d 83       	std	Y+5, r24	; 0x05
			port_ptr = &PORTD_REG;
 956:	82 e3       	ldi	r24, 0x32	; 50
 958:	90 e0       	ldi	r25, 0x00	; 0
 95a:	9c 83       	std	Y+4, r25	; 0x04
 95c:	8b 83       	std	Y+3, r24	; 0x03
			break;
			}
			if(PORT_PIN_IN==port_PortChannels[i].direction)
 95e:	40 91 31 01 	lds	r20, 0x0131
 962:	50 91 32 01 	lds	r21, 0x0132
 966:	29 81       	ldd	r18, Y+1	; 0x01
 968:	3a 81       	ldd	r19, Y+2	; 0x02
 96a:	c9 01       	movw	r24, r18
 96c:	88 0f       	add	r24, r24
 96e:	99 1f       	adc	r25, r25
 970:	82 0f       	add	r24, r18
 972:	93 1f       	adc	r25, r19
 974:	88 0f       	add	r24, r24
 976:	99 1f       	adc	r25, r25
 978:	fa 01       	movw	r30, r20
 97a:	e8 0f       	add	r30, r24
 97c:	f9 1f       	adc	r31, r25
 97e:	83 81       	ldd	r24, Z+3	; 0x03
 980:	88 23       	and	r24, r24
 982:	09 f0       	breq	.+2      	; 0x986 <Port_Init+0x10e>
 984:	93 c0       	rjmp	.+294    	; 0xaac <Port_Init+0x234>
			{
				CLEAR_BIT(*DDR_ptr,port_PortChannels[i].pin_num);
 986:	ed 81       	ldd	r30, Y+5	; 0x05
 988:	fe 81       	ldd	r31, Y+6	; 0x06
 98a:	80 81       	ld	r24, Z
 98c:	68 2f       	mov	r22, r24
 98e:	40 91 31 01 	lds	r20, 0x0131
 992:	50 91 32 01 	lds	r21, 0x0132
 996:	29 81       	ldd	r18, Y+1	; 0x01
 998:	3a 81       	ldd	r19, Y+2	; 0x02
 99a:	c9 01       	movw	r24, r18
 99c:	88 0f       	add	r24, r24
 99e:	99 1f       	adc	r25, r25
 9a0:	82 0f       	add	r24, r18
 9a2:	93 1f       	adc	r25, r19
 9a4:	88 0f       	add	r24, r24
 9a6:	99 1f       	adc	r25, r25
 9a8:	fa 01       	movw	r30, r20
 9aa:	e8 0f       	add	r30, r24
 9ac:	f9 1f       	adc	r31, r25
 9ae:	81 81       	ldd	r24, Z+1	; 0x01
 9b0:	92 81       	ldd	r25, Z+2	; 0x02
 9b2:	9c 01       	movw	r18, r24
 9b4:	81 e0       	ldi	r24, 0x01	; 1
 9b6:	90 e0       	ldi	r25, 0x00	; 0
 9b8:	02 c0       	rjmp	.+4      	; 0x9be <Port_Init+0x146>
 9ba:	88 0f       	add	r24, r24
 9bc:	99 1f       	adc	r25, r25
 9be:	2a 95       	dec	r18
 9c0:	e2 f7       	brpl	.-8      	; 0x9ba <Port_Init+0x142>
 9c2:	80 95       	com	r24
 9c4:	86 23       	and	r24, r22
 9c6:	ed 81       	ldd	r30, Y+5	; 0x05
 9c8:	fe 81       	ldd	r31, Y+6	; 0x06
 9ca:	80 83       	st	Z, r24
				if (Disable_Pullup == port_PortChannels[i].pin_in_mode)
 9cc:	40 91 31 01 	lds	r20, 0x0131
 9d0:	50 91 32 01 	lds	r21, 0x0132
 9d4:	29 81       	ldd	r18, Y+1	; 0x01
 9d6:	3a 81       	ldd	r19, Y+2	; 0x02
 9d8:	c9 01       	movw	r24, r18
 9da:	88 0f       	add	r24, r24
 9dc:	99 1f       	adc	r25, r25
 9de:	82 0f       	add	r24, r18
 9e0:	93 1f       	adc	r25, r19
 9e2:	88 0f       	add	r24, r24
 9e4:	99 1f       	adc	r25, r25
 9e6:	fa 01       	movw	r30, r20
 9e8:	e8 0f       	add	r30, r24
 9ea:	f9 1f       	adc	r31, r25
 9ec:	85 81       	ldd	r24, Z+5	; 0x05
 9ee:	88 23       	and	r24, r24
 9f0:	29 f5       	brne	.+74     	; 0xa3c <Port_Init+0x1c4>
				{
					CLEAR_BIT(*port_ptr, port_PortChannels[i].pin_num);
 9f2:	eb 81       	ldd	r30, Y+3	; 0x03
 9f4:	fc 81       	ldd	r31, Y+4	; 0x04
 9f6:	80 81       	ld	r24, Z
 9f8:	68 2f       	mov	r22, r24
 9fa:	40 91 31 01 	lds	r20, 0x0131
 9fe:	50 91 32 01 	lds	r21, 0x0132
 a02:	29 81       	ldd	r18, Y+1	; 0x01
 a04:	3a 81       	ldd	r19, Y+2	; 0x02
 a06:	c9 01       	movw	r24, r18
 a08:	88 0f       	add	r24, r24
 a0a:	99 1f       	adc	r25, r25
 a0c:	82 0f       	add	r24, r18
 a0e:	93 1f       	adc	r25, r19
 a10:	88 0f       	add	r24, r24
 a12:	99 1f       	adc	r25, r25
 a14:	fa 01       	movw	r30, r20
 a16:	e8 0f       	add	r30, r24
 a18:	f9 1f       	adc	r31, r25
 a1a:	81 81       	ldd	r24, Z+1	; 0x01
 a1c:	92 81       	ldd	r25, Z+2	; 0x02
 a1e:	9c 01       	movw	r18, r24
 a20:	81 e0       	ldi	r24, 0x01	; 1
 a22:	90 e0       	ldi	r25, 0x00	; 0
 a24:	02 2e       	mov	r0, r18
 a26:	02 c0       	rjmp	.+4      	; 0xa2c <Port_Init+0x1b4>
 a28:	88 0f       	add	r24, r24
 a2a:	99 1f       	adc	r25, r25
 a2c:	0a 94       	dec	r0
 a2e:	e2 f7       	brpl	.-8      	; 0xa28 <Port_Init+0x1b0>
 a30:	80 95       	com	r24
 a32:	86 23       	and	r24, r22
 a34:	eb 81       	ldd	r30, Y+3	; 0x03
 a36:	fc 81       	ldd	r31, Y+4	; 0x04
 a38:	80 83       	st	Z, r24
 a3a:	dc c0       	rjmp	.+440    	; 0xbf4 <Port_Init+0x37c>
				}
				else if(Enable_Pullup== port_PortChannels[i].pin_in_mode)
 a3c:	40 91 31 01 	lds	r20, 0x0131
 a40:	50 91 32 01 	lds	r21, 0x0132
 a44:	29 81       	ldd	r18, Y+1	; 0x01
 a46:	3a 81       	ldd	r19, Y+2	; 0x02
 a48:	c9 01       	movw	r24, r18
 a4a:	88 0f       	add	r24, r24
 a4c:	99 1f       	adc	r25, r25
 a4e:	82 0f       	add	r24, r18
 a50:	93 1f       	adc	r25, r19
 a52:	88 0f       	add	r24, r24
 a54:	99 1f       	adc	r25, r25
 a56:	fa 01       	movw	r30, r20
 a58:	e8 0f       	add	r30, r24
 a5a:	f9 1f       	adc	r31, r25
 a5c:	85 81       	ldd	r24, Z+5	; 0x05
 a5e:	81 30       	cpi	r24, 0x01	; 1
 a60:	09 f0       	breq	.+2      	; 0xa64 <Port_Init+0x1ec>
 a62:	c8 c0       	rjmp	.+400    	; 0xbf4 <Port_Init+0x37c>
				{
					SET_BIT(*port_ptr, port_PortChannels[i].pin_num);
 a64:	eb 81       	ldd	r30, Y+3	; 0x03
 a66:	fc 81       	ldd	r31, Y+4	; 0x04
 a68:	80 81       	ld	r24, Z
 a6a:	68 2f       	mov	r22, r24
 a6c:	40 91 31 01 	lds	r20, 0x0131
 a70:	50 91 32 01 	lds	r21, 0x0132
 a74:	29 81       	ldd	r18, Y+1	; 0x01
 a76:	3a 81       	ldd	r19, Y+2	; 0x02
 a78:	c9 01       	movw	r24, r18
 a7a:	88 0f       	add	r24, r24
 a7c:	99 1f       	adc	r25, r25
 a7e:	82 0f       	add	r24, r18
 a80:	93 1f       	adc	r25, r19
 a82:	88 0f       	add	r24, r24
 a84:	99 1f       	adc	r25, r25
 a86:	fa 01       	movw	r30, r20
 a88:	e8 0f       	add	r30, r24
 a8a:	f9 1f       	adc	r31, r25
 a8c:	81 81       	ldd	r24, Z+1	; 0x01
 a8e:	92 81       	ldd	r25, Z+2	; 0x02
 a90:	9c 01       	movw	r18, r24
 a92:	81 e0       	ldi	r24, 0x01	; 1
 a94:	90 e0       	ldi	r25, 0x00	; 0
 a96:	02 2e       	mov	r0, r18
 a98:	02 c0       	rjmp	.+4      	; 0xa9e <Port_Init+0x226>
 a9a:	88 0f       	add	r24, r24
 a9c:	99 1f       	adc	r25, r25
 a9e:	0a 94       	dec	r0
 aa0:	e2 f7       	brpl	.-8      	; 0xa9a <Port_Init+0x222>
 aa2:	86 2b       	or	r24, r22
 aa4:	eb 81       	ldd	r30, Y+3	; 0x03
 aa6:	fc 81       	ldd	r31, Y+4	; 0x04
 aa8:	80 83       	st	Z, r24
 aaa:	a4 c0       	rjmp	.+328    	; 0xbf4 <Port_Init+0x37c>
				}
				else
				{
				}
			}
			else if(PORT_PIN_OUT==port_PortChannels[i].direction)
 aac:	40 91 31 01 	lds	r20, 0x0131
 ab0:	50 91 32 01 	lds	r21, 0x0132
 ab4:	29 81       	ldd	r18, Y+1	; 0x01
 ab6:	3a 81       	ldd	r19, Y+2	; 0x02
 ab8:	c9 01       	movw	r24, r18
 aba:	88 0f       	add	r24, r24
 abc:	99 1f       	adc	r25, r25
 abe:	82 0f       	add	r24, r18
 ac0:	93 1f       	adc	r25, r19
 ac2:	88 0f       	add	r24, r24
 ac4:	99 1f       	adc	r25, r25
 ac6:	fa 01       	movw	r30, r20
 ac8:	e8 0f       	add	r30, r24
 aca:	f9 1f       	adc	r31, r25
 acc:	83 81       	ldd	r24, Z+3	; 0x03
 ace:	81 30       	cpi	r24, 0x01	; 1
 ad0:	09 f0       	breq	.+2      	; 0xad4 <Port_Init+0x25c>
 ad2:	90 c0       	rjmp	.+288    	; 0xbf4 <Port_Init+0x37c>
			{
				SET_BIT(*DDR_ptr,port_PortChannels[i].pin_num);
 ad4:	ed 81       	ldd	r30, Y+5	; 0x05
 ad6:	fe 81       	ldd	r31, Y+6	; 0x06
 ad8:	80 81       	ld	r24, Z
 ada:	68 2f       	mov	r22, r24
 adc:	40 91 31 01 	lds	r20, 0x0131
 ae0:	50 91 32 01 	lds	r21, 0x0132
 ae4:	29 81       	ldd	r18, Y+1	; 0x01
 ae6:	3a 81       	ldd	r19, Y+2	; 0x02
 ae8:	c9 01       	movw	r24, r18
 aea:	88 0f       	add	r24, r24
 aec:	99 1f       	adc	r25, r25
 aee:	82 0f       	add	r24, r18
 af0:	93 1f       	adc	r25, r19
 af2:	88 0f       	add	r24, r24
 af4:	99 1f       	adc	r25, r25
 af6:	fa 01       	movw	r30, r20
 af8:	e8 0f       	add	r30, r24
 afa:	f9 1f       	adc	r31, r25
 afc:	81 81       	ldd	r24, Z+1	; 0x01
 afe:	92 81       	ldd	r25, Z+2	; 0x02
 b00:	9c 01       	movw	r18, r24
 b02:	81 e0       	ldi	r24, 0x01	; 1
 b04:	90 e0       	ldi	r25, 0x00	; 0
 b06:	02 c0       	rjmp	.+4      	; 0xb0c <Port_Init+0x294>
 b08:	88 0f       	add	r24, r24
 b0a:	99 1f       	adc	r25, r25
 b0c:	2a 95       	dec	r18
 b0e:	e2 f7       	brpl	.-8      	; 0xb08 <Port_Init+0x290>
 b10:	86 2b       	or	r24, r22
 b12:	ed 81       	ldd	r30, Y+5	; 0x05
 b14:	fe 81       	ldd	r31, Y+6	; 0x06
 b16:	80 83       	st	Z, r24
				if (initial_Low==port_PortChannels[i].initial_Value)
 b18:	40 91 31 01 	lds	r20, 0x0131
 b1c:	50 91 32 01 	lds	r21, 0x0132
 b20:	29 81       	ldd	r18, Y+1	; 0x01
 b22:	3a 81       	ldd	r19, Y+2	; 0x02
 b24:	c9 01       	movw	r24, r18
 b26:	88 0f       	add	r24, r24
 b28:	99 1f       	adc	r25, r25
 b2a:	82 0f       	add	r24, r18
 b2c:	93 1f       	adc	r25, r19
 b2e:	88 0f       	add	r24, r24
 b30:	99 1f       	adc	r25, r25
 b32:	fa 01       	movw	r30, r20
 b34:	e8 0f       	add	r30, r24
 b36:	f9 1f       	adc	r31, r25
 b38:	84 81       	ldd	r24, Z+4	; 0x04
 b3a:	88 23       	and	r24, r24
 b3c:	29 f5       	brne	.+74     	; 0xb88 <Port_Init+0x310>
				{
					CLEAR_BIT(*port_ptr,port_PortChannels[i].pin_num);
 b3e:	eb 81       	ldd	r30, Y+3	; 0x03
 b40:	fc 81       	ldd	r31, Y+4	; 0x04
 b42:	80 81       	ld	r24, Z
 b44:	68 2f       	mov	r22, r24
 b46:	40 91 31 01 	lds	r20, 0x0131
 b4a:	50 91 32 01 	lds	r21, 0x0132
 b4e:	29 81       	ldd	r18, Y+1	; 0x01
 b50:	3a 81       	ldd	r19, Y+2	; 0x02
 b52:	c9 01       	movw	r24, r18
 b54:	88 0f       	add	r24, r24
 b56:	99 1f       	adc	r25, r25
 b58:	82 0f       	add	r24, r18
 b5a:	93 1f       	adc	r25, r19
 b5c:	88 0f       	add	r24, r24
 b5e:	99 1f       	adc	r25, r25
 b60:	fa 01       	movw	r30, r20
 b62:	e8 0f       	add	r30, r24
 b64:	f9 1f       	adc	r31, r25
 b66:	81 81       	ldd	r24, Z+1	; 0x01
 b68:	92 81       	ldd	r25, Z+2	; 0x02
 b6a:	9c 01       	movw	r18, r24
 b6c:	81 e0       	ldi	r24, 0x01	; 1
 b6e:	90 e0       	ldi	r25, 0x00	; 0
 b70:	02 2e       	mov	r0, r18
 b72:	02 c0       	rjmp	.+4      	; 0xb78 <Port_Init+0x300>
 b74:	88 0f       	add	r24, r24
 b76:	99 1f       	adc	r25, r25
 b78:	0a 94       	dec	r0
 b7a:	e2 f7       	brpl	.-8      	; 0xb74 <Port_Init+0x2fc>
 b7c:	80 95       	com	r24
 b7e:	86 23       	and	r24, r22
 b80:	eb 81       	ldd	r30, Y+3	; 0x03
 b82:	fc 81       	ldd	r31, Y+4	; 0x04
 b84:	80 83       	st	Z, r24
 b86:	36 c0       	rjmp	.+108    	; 0xbf4 <Port_Init+0x37c>
				}
				else if (initial_High==port_PortChannels[i].initial_Value)
 b88:	40 91 31 01 	lds	r20, 0x0131
 b8c:	50 91 32 01 	lds	r21, 0x0132
 b90:	29 81       	ldd	r18, Y+1	; 0x01
 b92:	3a 81       	ldd	r19, Y+2	; 0x02
 b94:	c9 01       	movw	r24, r18
 b96:	88 0f       	add	r24, r24
 b98:	99 1f       	adc	r25, r25
 b9a:	82 0f       	add	r24, r18
 b9c:	93 1f       	adc	r25, r19
 b9e:	88 0f       	add	r24, r24
 ba0:	99 1f       	adc	r25, r25
 ba2:	fa 01       	movw	r30, r20
 ba4:	e8 0f       	add	r30, r24
 ba6:	f9 1f       	adc	r31, r25
 ba8:	84 81       	ldd	r24, Z+4	; 0x04
 baa:	81 30       	cpi	r24, 0x01	; 1
 bac:	19 f5       	brne	.+70     	; 0xbf4 <Port_Init+0x37c>
				{
					SET_BIT(*port_ptr,port_PortChannels[i].pin_num);
 bae:	eb 81       	ldd	r30, Y+3	; 0x03
 bb0:	fc 81       	ldd	r31, Y+4	; 0x04
 bb2:	80 81       	ld	r24, Z
 bb4:	68 2f       	mov	r22, r24
 bb6:	40 91 31 01 	lds	r20, 0x0131
 bba:	50 91 32 01 	lds	r21, 0x0132
 bbe:	29 81       	ldd	r18, Y+1	; 0x01
 bc0:	3a 81       	ldd	r19, Y+2	; 0x02
 bc2:	c9 01       	movw	r24, r18
 bc4:	88 0f       	add	r24, r24
 bc6:	99 1f       	adc	r25, r25
 bc8:	82 0f       	add	r24, r18
 bca:	93 1f       	adc	r25, r19
 bcc:	88 0f       	add	r24, r24
 bce:	99 1f       	adc	r25, r25
 bd0:	fa 01       	movw	r30, r20
 bd2:	e8 0f       	add	r30, r24
 bd4:	f9 1f       	adc	r31, r25
 bd6:	81 81       	ldd	r24, Z+1	; 0x01
 bd8:	92 81       	ldd	r25, Z+2	; 0x02
 bda:	9c 01       	movw	r18, r24
 bdc:	81 e0       	ldi	r24, 0x01	; 1
 bde:	90 e0       	ldi	r25, 0x00	; 0
 be0:	02 2e       	mov	r0, r18
 be2:	02 c0       	rjmp	.+4      	; 0xbe8 <Port_Init+0x370>
 be4:	88 0f       	add	r24, r24
 be6:	99 1f       	adc	r25, r25
 be8:	0a 94       	dec	r0
 bea:	e2 f7       	brpl	.-8      	; 0xbe4 <Port_Init+0x36c>
 bec:	86 2b       	or	r24, r22
 bee:	eb 81       	ldd	r30, Y+3	; 0x03
 bf0:	fc 81       	ldd	r31, Y+4	; 0x04
 bf2:	80 83       	st	Z, r24
				PORT_E_PARAM_CONFIG);
	}
	else
	{
		port_PortChannels = ConfigPtr->Ports;
		for (int i = 0; i < PORT_CONFIGURED_CHANNLES; i++) {
 bf4:	89 81       	ldd	r24, Y+1	; 0x01
 bf6:	9a 81       	ldd	r25, Y+2	; 0x02
 bf8:	01 96       	adiw	r24, 0x01	; 1
 bfa:	9a 83       	std	Y+2, r25	; 0x02
 bfc:	89 83       	std	Y+1, r24	; 0x01
 bfe:	89 81       	ldd	r24, Y+1	; 0x01
 c00:	9a 81       	ldd	r25, Y+2	; 0x02
 c02:	80 32       	cpi	r24, 0x20	; 32
 c04:	91 05       	cpc	r25, r1
 c06:	08 f4       	brcc	.+2      	; 0xc0a <Port_Init+0x392>
 c08:	58 ce       	rjmp	.-848    	; 0x8ba <Port_Init+0x42>
			else
			{
			}

		}
		Port_Status = PORT_INITIALIZED;
 c0a:	81 e0       	ldi	r24, 0x01	; 1
 c0c:	80 93 30 01 	sts	0x0130, r24
	}
#endif
}
 c10:	2a 96       	adiw	r28, 0x0a	; 10
 c12:	0f b6       	in	r0, 0x3f	; 63
 c14:	f8 94       	cli
 c16:	de bf       	out	0x3e, r29	; 62
 c18:	0f be       	out	0x3f, r0	; 63
 c1a:	cd bf       	out	0x3d, r28	; 61
 c1c:	cf 91       	pop	r28
 c1e:	df 91       	pop	r29
 c20:	08 95       	ret

00000c22 <Port_SetPinDirection>:
 * Return value: None
 * Description: Sets the port pin direction.
 ************************************************************************************/
#if (PORT_SET_PIN_DIRECTION_API == STD_ON)
void Port_SetPinDirection( Port_PinType Pin, Port_PinDirectionType Direction)
{
 c22:	df 93       	push	r29
 c24:	cf 93       	push	r28
 c26:	cd b7       	in	r28, 0x3d	; 61
 c28:	de b7       	in	r29, 0x3e	; 62
 c2a:	2a 97       	sbiw	r28, 0x0a	; 10
 c2c:	0f b6       	in	r0, 0x3f	; 63
 c2e:	f8 94       	cli
 c30:	de bf       	out	0x3e, r29	; 62
 c32:	0f be       	out	0x3f, r0	; 63
 c34:	cd bf       	out	0x3d, r28	; 61
 c36:	9f 83       	std	Y+7, r25	; 0x07
 c38:	8e 83       	std	Y+6, r24	; 0x06
 c3a:	68 87       	std	Y+8, r22	; 0x08
	uint8 * DDR_Ptr = NULL_PTR;
 c3c:	1d 82       	std	Y+5, r1	; 0x05
 c3e:	1c 82       	std	Y+4, r1	; 0x04
	boolean error = FALSE;
 c40:	1b 82       	std	Y+3, r1	; 0x03
	uint8 local_port;
	uint8 local_pin;

#if (PORT_DEV_ERROR_DETECT == STD_ON)
	/* Check if the Driver is initialized before using this function */
	if (PORT_NOT_INITIALIZED == Port_Status)
 c42:	80 91 30 01 	lds	r24, 0x0130
 c46:	88 23       	and	r24, r24
 c48:	49 f4       	brne	.+18     	; 0xc5c <Port_SetPinDirection+0x3a>
	{
		Det_ReportError(PORT_MODULE_ID, PORT_INSTANCE_ID,
 c4a:	88 e7       	ldi	r24, 0x78	; 120
 c4c:	90 e0       	ldi	r25, 0x00	; 0
 c4e:	60 e0       	ldi	r22, 0x00	; 0
 c50:	41 e0       	ldi	r20, 0x01	; 1
 c52:	2f e0       	ldi	r18, 0x0F	; 15
 c54:	0e 94 c8 00 	call	0x190	; 0x190 <Det_ReportError>
				PORT_SET_PIN_DIRECTION_SID, PORT_E_UNINIT);
		error = TRUE;
 c58:	81 e0       	ldi	r24, 0x01	; 1
 c5a:	8b 83       	std	Y+3, r24	; 0x03
	else
	{
		/* No Action Required */
	}
	/* Check if the used channel is within the valid range */
	if(Pin >= PORT_PIN_NUM)
 c5c:	8e 81       	ldd	r24, Y+6	; 0x06
 c5e:	9f 81       	ldd	r25, Y+7	; 0x07
 c60:	80 32       	cpi	r24, 0x20	; 32
 c62:	91 05       	cpc	r25, r1
 c64:	38 f0       	brcs	.+14     	; 0xc74 <Port_SetPinDirection+0x52>
	{
		Det_ReportError(PORT_MODULE_ID, PORT_INSTANCE_ID,
 c66:	88 e7       	ldi	r24, 0x78	; 120
 c68:	90 e0       	ldi	r25, 0x00	; 0
 c6a:	60 e0       	ldi	r22, 0x00	; 0
 c6c:	41 e0       	ldi	r20, 0x01	; 1
 c6e:	2a e0       	ldi	r18, 0x0A	; 10
 c70:	0e 94 c8 00 	call	0x190	; 0x190 <Det_ReportError>
	{
		/* No Action Required */
	}
#endif
	{
		if(Pin >= PORT_A_PIN_0 && Pin <= PORT_A_PIN_7 )
 c74:	8e 81       	ldd	r24, Y+6	; 0x06
 c76:	9f 81       	ldd	r25, Y+7	; 0x07
 c78:	88 30       	cpi	r24, 0x08	; 8
 c7a:	91 05       	cpc	r25, r1
 c7c:	10 f4       	brcc	.+4      	; 0xc82 <Port_SetPinDirection+0x60>
		{
			local_port=PORTA;
 c7e:	1a 82       	std	Y+2, r1	; 0x02
 c80:	26 c0       	rjmp	.+76     	; 0xcce <Port_SetPinDirection+0xac>
		}
		else if (Pin >=PORT_B_PIN_0 && Pin<=PORT_B_PIN_7)
 c82:	8e 81       	ldd	r24, Y+6	; 0x06
 c84:	9f 81       	ldd	r25, Y+7	; 0x07
 c86:	88 30       	cpi	r24, 0x08	; 8
 c88:	91 05       	cpc	r25, r1
 c8a:	40 f0       	brcs	.+16     	; 0xc9c <Port_SetPinDirection+0x7a>
 c8c:	8e 81       	ldd	r24, Y+6	; 0x06
 c8e:	9f 81       	ldd	r25, Y+7	; 0x07
 c90:	80 31       	cpi	r24, 0x10	; 16
 c92:	91 05       	cpc	r25, r1
 c94:	18 f4       	brcc	.+6      	; 0xc9c <Port_SetPinDirection+0x7a>
		{
			local_port=PORTB;
 c96:	81 e0       	ldi	r24, 0x01	; 1
 c98:	8a 83       	std	Y+2, r24	; 0x02
 c9a:	19 c0       	rjmp	.+50     	; 0xcce <Port_SetPinDirection+0xac>
		}
		else if (Pin >=PORT_C_PIN_0 && Pin<=PORT_C_PIN_7)
 c9c:	8e 81       	ldd	r24, Y+6	; 0x06
 c9e:	9f 81       	ldd	r25, Y+7	; 0x07
 ca0:	80 31       	cpi	r24, 0x10	; 16
 ca2:	91 05       	cpc	r25, r1
 ca4:	40 f0       	brcs	.+16     	; 0xcb6 <Port_SetPinDirection+0x94>
 ca6:	8e 81       	ldd	r24, Y+6	; 0x06
 ca8:	9f 81       	ldd	r25, Y+7	; 0x07
 caa:	88 31       	cpi	r24, 0x18	; 24
 cac:	91 05       	cpc	r25, r1
 cae:	18 f4       	brcc	.+6      	; 0xcb6 <Port_SetPinDirection+0x94>
		{
			local_port=PORTC;
 cb0:	82 e0       	ldi	r24, 0x02	; 2
 cb2:	8a 83       	std	Y+2, r24	; 0x02
 cb4:	0c c0       	rjmp	.+24     	; 0xcce <Port_SetPinDirection+0xac>
		}
		else if (Pin >=PORT_D_PIN_0 && Pin<=PORT_D_PIN_7)
 cb6:	8e 81       	ldd	r24, Y+6	; 0x06
 cb8:	9f 81       	ldd	r25, Y+7	; 0x07
 cba:	88 31       	cpi	r24, 0x18	; 24
 cbc:	91 05       	cpc	r25, r1
 cbe:	38 f0       	brcs	.+14     	; 0xcce <Port_SetPinDirection+0xac>
 cc0:	8e 81       	ldd	r24, Y+6	; 0x06
 cc2:	9f 81       	ldd	r25, Y+7	; 0x07
 cc4:	80 32       	cpi	r24, 0x20	; 32
 cc6:	91 05       	cpc	r25, r1
 cc8:	10 f4       	brcc	.+4      	; 0xcce <Port_SetPinDirection+0xac>
		{
			local_port=PORTD;
 cca:	83 e0       	ldi	r24, 0x03	; 3
 ccc:	8a 83       	std	Y+2, r24	; 0x02
		}
		else
		{
		}

		if (Pin >=PORT_A_PIN_0 && Pin<=PORT_A_PIN_7)
 cce:	8e 81       	ldd	r24, Y+6	; 0x06
 cd0:	9f 81       	ldd	r25, Y+7	; 0x07
 cd2:	88 30       	cpi	r24, 0x08	; 8
 cd4:	91 05       	cpc	r25, r1
 cd6:	18 f4       	brcc	.+6      	; 0xcde <Port_SetPinDirection+0xbc>
		{
			local_pin=Pin;
 cd8:	8e 81       	ldd	r24, Y+6	; 0x06
 cda:	89 83       	std	Y+1, r24	; 0x01
 cdc:	03 c0       	rjmp	.+6      	; 0xce4 <Port_SetPinDirection+0xc2>
		}
		else
		{
			local_pin=Pin % MAX_PIN_IN_PORT;
 cde:	8e 81       	ldd	r24, Y+6	; 0x06
 ce0:	87 70       	andi	r24, 0x07	; 7
 ce2:	89 83       	std	Y+1, r24	; 0x01
		}
		switch (local_port) {
 ce4:	8a 81       	ldd	r24, Y+2	; 0x02
 ce6:	28 2f       	mov	r18, r24
 ce8:	30 e0       	ldi	r19, 0x00	; 0
 cea:	3a 87       	std	Y+10, r19	; 0x0a
 cec:	29 87       	std	Y+9, r18	; 0x09
 cee:	89 85       	ldd	r24, Y+9	; 0x09
 cf0:	9a 85       	ldd	r25, Y+10	; 0x0a
 cf2:	81 30       	cpi	r24, 0x01	; 1
 cf4:	91 05       	cpc	r25, r1
 cf6:	d1 f0       	breq	.+52     	; 0xd2c <Port_SetPinDirection+0x10a>
 cf8:	29 85       	ldd	r18, Y+9	; 0x09
 cfa:	3a 85       	ldd	r19, Y+10	; 0x0a
 cfc:	22 30       	cpi	r18, 0x02	; 2
 cfe:	31 05       	cpc	r19, r1
 d00:	2c f4       	brge	.+10     	; 0xd0c <Port_SetPinDirection+0xea>
 d02:	89 85       	ldd	r24, Y+9	; 0x09
 d04:	9a 85       	ldd	r25, Y+10	; 0x0a
 d06:	00 97       	sbiw	r24, 0x00	; 0
 d08:	61 f0       	breq	.+24     	; 0xd22 <Port_SetPinDirection+0x100>
 d0a:	1e c0       	rjmp	.+60     	; 0xd48 <Port_SetPinDirection+0x126>
 d0c:	29 85       	ldd	r18, Y+9	; 0x09
 d0e:	3a 85       	ldd	r19, Y+10	; 0x0a
 d10:	22 30       	cpi	r18, 0x02	; 2
 d12:	31 05       	cpc	r19, r1
 d14:	81 f0       	breq	.+32     	; 0xd36 <Port_SetPinDirection+0x114>
 d16:	89 85       	ldd	r24, Y+9	; 0x09
 d18:	9a 85       	ldd	r25, Y+10	; 0x0a
 d1a:	83 30       	cpi	r24, 0x03	; 3
 d1c:	91 05       	cpc	r25, r1
 d1e:	81 f0       	breq	.+32     	; 0xd40 <Port_SetPinDirection+0x11e>
 d20:	13 c0       	rjmp	.+38     	; 0xd48 <Port_SetPinDirection+0x126>
		case PORTA:DDR_Ptr = &DDRA_REG;
 d22:	8a e3       	ldi	r24, 0x3A	; 58
 d24:	90 e0       	ldi	r25, 0x00	; 0
 d26:	9d 83       	std	Y+5, r25	; 0x05
 d28:	8c 83       	std	Y+4, r24	; 0x04
 d2a:	0e c0       	rjmp	.+28     	; 0xd48 <Port_SetPinDirection+0x126>
		break;
		case PORTB:DDR_Ptr = &DDRB_REG;
 d2c:	87 e3       	ldi	r24, 0x37	; 55
 d2e:	90 e0       	ldi	r25, 0x00	; 0
 d30:	9d 83       	std	Y+5, r25	; 0x05
 d32:	8c 83       	std	Y+4, r24	; 0x04
 d34:	09 c0       	rjmp	.+18     	; 0xd48 <Port_SetPinDirection+0x126>
		break;
		case PORTC:DDR_Ptr = &DDRC_REG;
 d36:	84 e3       	ldi	r24, 0x34	; 52
 d38:	90 e0       	ldi	r25, 0x00	; 0
 d3a:	9d 83       	std	Y+5, r25	; 0x05
 d3c:	8c 83       	std	Y+4, r24	; 0x04
 d3e:	04 c0       	rjmp	.+8      	; 0xd48 <Port_SetPinDirection+0x126>
		break;
		case PORTD:DDR_Ptr = &DDRD_REG;
 d40:	81 e3       	ldi	r24, 0x31	; 49
 d42:	90 e0       	ldi	r25, 0x00	; 0
 d44:	9d 83       	std	Y+5, r25	; 0x05
 d46:	8c 83       	std	Y+4, r24	; 0x04
		break;
		}
		if (PORT_PIN_OUT == Direction)
 d48:	88 85       	ldd	r24, Y+8	; 0x08
 d4a:	81 30       	cpi	r24, 0x01	; 1
 d4c:	a1 f4       	brne	.+40     	; 0xd76 <Port_SetPinDirection+0x154>
		{
			SET_BIT(*DDR_Ptr, local_pin);
 d4e:	ec 81       	ldd	r30, Y+4	; 0x04
 d50:	fd 81       	ldd	r31, Y+5	; 0x05
 d52:	80 81       	ld	r24, Z
 d54:	48 2f       	mov	r20, r24
 d56:	89 81       	ldd	r24, Y+1	; 0x01
 d58:	28 2f       	mov	r18, r24
 d5a:	30 e0       	ldi	r19, 0x00	; 0
 d5c:	81 e0       	ldi	r24, 0x01	; 1
 d5e:	90 e0       	ldi	r25, 0x00	; 0
 d60:	02 2e       	mov	r0, r18
 d62:	02 c0       	rjmp	.+4      	; 0xd68 <Port_SetPinDirection+0x146>
 d64:	88 0f       	add	r24, r24
 d66:	99 1f       	adc	r25, r25
 d68:	0a 94       	dec	r0
 d6a:	e2 f7       	brpl	.-8      	; 0xd64 <Port_SetPinDirection+0x142>
 d6c:	84 2b       	or	r24, r20
 d6e:	ec 81       	ldd	r30, Y+4	; 0x04
 d70:	fd 81       	ldd	r31, Y+5	; 0x05
 d72:	80 83       	st	Z, r24
 d74:	17 c0       	rjmp	.+46     	; 0xda4 <Port_SetPinDirection+0x182>
		}
		else if (PORT_PIN_IN == Direction)
 d76:	88 85       	ldd	r24, Y+8	; 0x08
 d78:	88 23       	and	r24, r24
 d7a:	a1 f4       	brne	.+40     	; 0xda4 <Port_SetPinDirection+0x182>
		{
			CLEAR_BIT(*DDR_Ptr, local_pin);
 d7c:	ec 81       	ldd	r30, Y+4	; 0x04
 d7e:	fd 81       	ldd	r31, Y+5	; 0x05
 d80:	80 81       	ld	r24, Z
 d82:	48 2f       	mov	r20, r24
 d84:	89 81       	ldd	r24, Y+1	; 0x01
 d86:	28 2f       	mov	r18, r24
 d88:	30 e0       	ldi	r19, 0x00	; 0
 d8a:	81 e0       	ldi	r24, 0x01	; 1
 d8c:	90 e0       	ldi	r25, 0x00	; 0
 d8e:	02 2e       	mov	r0, r18
 d90:	02 c0       	rjmp	.+4      	; 0xd96 <Port_SetPinDirection+0x174>
 d92:	88 0f       	add	r24, r24
 d94:	99 1f       	adc	r25, r25
 d96:	0a 94       	dec	r0
 d98:	e2 f7       	brpl	.-8      	; 0xd92 <Port_SetPinDirection+0x170>
 d9a:	80 95       	com	r24
 d9c:	84 23       	and	r24, r20
 d9e:	ec 81       	ldd	r30, Y+4	; 0x04
 da0:	fd 81       	ldd	r31, Y+5	; 0x05
 da2:	80 83       	st	Z, r24
		else
		{

		}
	}
}
 da4:	2a 96       	adiw	r28, 0x0a	; 10
 da6:	0f b6       	in	r0, 0x3f	; 63
 da8:	f8 94       	cli
 daa:	de bf       	out	0x3e, r29	; 62
 dac:	0f be       	out	0x3f, r0	; 63
 dae:	cd bf       	out	0x3d, r28	; 61
 db0:	cf 91       	pop	r28
 db2:	df 91       	pop	r29
 db4:	08 95       	ret

00000db6 <Port_RefreshPortDirection>:
 * Return value: None
 * Description: Refreshes port direction. .
 ************************************************************************************/

void Port_RefreshPortDirection(void)
{
 db6:	df 93       	push	r29
 db8:	cf 93       	push	r28
 dba:	cd b7       	in	r28, 0x3d	; 61
 dbc:	de b7       	in	r29, 0x3e	; 62
#if (PORT_DEV_ERROR_DETECT == STD_ON)
	if (PORT_NOT_INITIALIZED == Port_Status)
 dbe:	80 91 30 01 	lds	r24, 0x0130
 dc2:	88 23       	and	r24, r24
 dc4:	39 f4       	brne	.+14     	; 0xdd4 <Port_RefreshPortDirection+0x1e>
	{
		Det_ReportError(PORT_MODULE_ID, PORT_INSTANCE_ID,
 dc6:	88 e7       	ldi	r24, 0x78	; 120
 dc8:	90 e0       	ldi	r25, 0x00	; 0
 dca:	60 e0       	ldi	r22, 0x00	; 0
 dcc:	42 e0       	ldi	r20, 0x02	; 2
 dce:	2f e0       	ldi	r18, 0x0F	; 15
 dd0:	0e 94 c8 00 	call	0x190	; 0x190 <Det_ReportError>
	else
	{
	}
#endif

}
 dd4:	cf 91       	pop	r28
 dd6:	df 91       	pop	r29
 dd8:	08 95       	ret

00000dda <main>:
#include "Os.h"

int main(void)
{
 dda:	df 93       	push	r29
 ddc:	cf 93       	push	r28
 dde:	cd b7       	in	r28, 0x3d	; 61
 de0:	de b7       	in	r29, 0x3e	; 62
	/* Start the Os */
	Os_start();
 de2:	0e 94 c9 03 	call	0x792	; 0x792 <Os_start>
 de6:	80 e0       	ldi	r24, 0x00	; 0
 de8:	90 e0       	ldi	r25, 0x00	; 0
}
 dea:	cf 91       	pop	r28
 dec:	df 91       	pop	r29
 dee:	08 95       	ret

00000df0 <_exit>:
 df0:	f8 94       	cli

00000df2 <__stop_program>:
 df2:	ff cf       	rjmp	.-2      	; 0xdf2 <__stop_program>
